
objs/l1/l2/l3//0-test-checks.elf:     file format elf32-littlearm


Disassembly of section .text:

00008000 <__code_start__>:
    8000:	e3a00013 	mov	r0, #19, 0
    8004:	e3800080 	orr	r0, r0, #128, 0	; 0x80
    8008:	e129f000 	msr	CPSR_fc, r0
    800c:	e3a01000 	mov	r1, #0, 0
    8010:	ee071f95 	mcr	15, 0, r1, cr7, cr5, {4}
    8014:	e3a0d302 	mov	sp, #134217728	; 0x8000000
    8018:	e3a0b000 	mov	fp, #0, 0
    801c:	eb0001b7 	bl	8700 <_cstart>
    8020:	eb0001dc 	bl	8798 <rpi_reboot>

00008024 <PUT32>:
    8024:	e5801000 	str	r1, [r0]
    8028:	e12fff1e 	bx	lr

0000802c <GET32>:
    802c:	e5900000 	ldr	r0, [r0]
    8030:	e12fff1e 	bx	lr

00008034 <BRANCHTO>:
    8034:	e12fff10 	bx	r0

00008038 <vector_base_reset.part.0>:
    8038:	e52de004 	push	{lr}		; (str lr, [sp, #-4]!)
    803c:	e59f201c 	ldr	r2, [pc, #28]	; 8060 <vector_base_reset.part.0+0x28>
    8040:	e24dd00c 	sub	sp, sp, #12, 0
    8044:	e3a0304d 	mov	r3, #77, 0	; 0x4d
    8048:	e59f1014 	ldr	r1, [pc, #20]	; 8064 <vector_base_reset.part.0+0x2c>
    804c:	e58d2000 	str	r2, [sp]
    8050:	e59f0010 	ldr	r0, [pc, #16]	; 8068 <vector_base_reset.part.0+0x30>
    8054:	e59f2010 	ldr	r2, [pc, #16]	; 806c <vector_base_reset.part.0+0x34>
    8058:	eb000094 	bl	82b0 <printk>
    805c:	eb00019c 	bl	86d4 <clean_reboot>
    8060:	00008f80 	.word	0x00008f80
    8064:	00008f18 	.word	0x00008f18
    8068:	00008f50 	.word	0x00008f50
    806c:	000090e4 	.word	0x000090e4

00008070 <notmain>:
    8070:	e92d4010 	push	{r4, lr}
    8074:	e59f111c 	ldr	r1, [pc, #284]	; 8198 <notmain+0x128>
    8078:	e24dd060 	sub	sp, sp, #96, 0	; 0x60
    807c:	e59f0118 	ldr	r0, [pc, #280]	; 819c <notmain+0x12c>
    8080:	eb00008a 	bl	82b0 <printk>
    8084:	e59f0114 	ldr	r0, [pc, #276]	; 81a0 <notmain+0x130>
    8088:	eb000088 	bl	82b0 <printk>
    808c:	e59f0110 	ldr	r0, [pc, #272]	; 81a4 <notmain+0x134>
    8090:	eb000086 	bl	82b0 <printk>
    8094:	e59f10fc 	ldr	r1, [pc, #252]	; 8198 <notmain+0x128>
    8098:	e59f00fc 	ldr	r0, [pc, #252]	; 819c <notmain+0x12c>
    809c:	eb000083 	bl	82b0 <printk>
    80a0:	e59f0100 	ldr	r0, [pc, #256]	; 81a8 <notmain+0x138>
    80a4:	eb000081 	bl	82b0 <printk>
    80a8:	e59f00f4 	ldr	r0, [pc, #244]	; 81a4 <notmain+0x134>
    80ac:	eb00007f 	bl	82b0 <printk>
    80b0:	e59f10e0 	ldr	r1, [pc, #224]	; 8198 <notmain+0x128>
    80b4:	e59f00e0 	ldr	r0, [pc, #224]	; 819c <notmain+0x12c>
    80b8:	eb00007c 	bl	82b0 <printk>
    80bc:	e59f00e8 	ldr	r0, [pc, #232]	; 81ac <notmain+0x13c>
    80c0:	eb00007a 	bl	82b0 <printk>
    80c4:	e59f00e4 	ldr	r0, [pc, #228]	; 81b0 <notmain+0x140>
    80c8:	eb000078 	bl	82b0 <printk>
    80cc:	e59f10c4 	ldr	r1, [pc, #196]	; 8198 <notmain+0x128>
    80d0:	e59f00c4 	ldr	r0, [pc, #196]	; 819c <notmain+0x12c>
    80d4:	eb000075 	bl	82b0 <printk>
    80d8:	e28d4047 	add	r4, sp, #71, 0	; 0x47
    80dc:	e59f00d0 	ldr	r0, [pc, #208]	; 81b4 <notmain+0x144>
    80e0:	eb000072 	bl	82b0 <printk>
    80e4:	e3c4403f 	bic	r4, r4, #63, 0	; 0x3f
    80e8:	ee1c3f10 	mrc	15, 0, r3, cr12, cr0, {0}
    80ec:	e1540003 	cmp	r4, r3
    80f0:	0a000007 	beq	8114 <notmain+0xa4>
    80f4:	e3530000 	cmp	r3, #0, 0
    80f8:	1a00001f 	bne	817c <notmain+0x10c>
    80fc:	ee1c2f10 	mrc	15, 0, r2, cr12, cr0, {0}
    8100:	ee073f95 	mcr	15, 0, r3, cr7, cr5, {4}
    8104:	ee0c4f10 	mcr	15, 0, r4, cr12, cr0, {0}
    8108:	ee1c3f10 	mrc	15, 0, r3, cr12, cr0, {0}
    810c:	e1540003 	cmp	r4, r3
    8110:	1a000018 	bne	8178 <notmain+0x108>
    8114:	ee1c2f10 	mrc	15, 0, r2, cr12, cr0, {0}
    8118:	e3a03000 	mov	r3, #0, 0
    811c:	ee073f95 	mcr	15, 0, r3, cr7, cr5, {4}
    8120:	ee0c4f10 	mcr	15, 0, r4, cr12, cr0, {0}
    8124:	ee1c3f10 	mrc	15, 0, r3, cr12, cr0, {0}
    8128:	e1540003 	cmp	r4, r3
    812c:	1a000011 	bne	8178 <notmain+0x108>
    8130:	e1540002 	cmp	r4, r2
    8134:	1a000008 	bne	815c <notmain+0xec>
    8138:	e59f0070 	ldr	r0, [pc, #112]	; 81b0 <notmain+0x140>
    813c:	eb00005b 	bl	82b0 <printk>
    8140:	e59f1050 	ldr	r1, [pc, #80]	; 8198 <notmain+0x128>
    8144:	e59f0050 	ldr	r0, [pc, #80]	; 819c <notmain+0x12c>
    8148:	eb000058 	bl	82b0 <printk>
    814c:	e59f0064 	ldr	r0, [pc, #100]	; 81b8 <notmain+0x148>
    8150:	eb000056 	bl	82b0 <printk>
    8154:	e28dd060 	add	sp, sp, #96, 0	; 0x60
    8158:	e8bd8010 	pop	{r4, pc}
    815c:	e3a03023 	mov	r3, #35, 0	; 0x23
    8160:	e88d0014 	stm	sp, {r2, r4}
    8164:	e59f1050 	ldr	r1, [pc, #80]	; 81bc <notmain+0x14c>
    8168:	e59f2028 	ldr	r2, [pc, #40]	; 8198 <notmain+0x128>
    816c:	e59f004c 	ldr	r0, [pc, #76]	; 81c0 <notmain+0x150>
    8170:	eb00004e 	bl	82b0 <printk>
    8174:	eb000156 	bl	86d4 <clean_reboot>
    8178:	ebffffae 	bl	8038 <vector_base_reset.part.0>
    817c:	e59f2040 	ldr	r2, [pc, #64]	; 81c4 <notmain+0x154>
    8180:	e59f1040 	ldr	r1, [pc, #64]	; 81c8 <notmain+0x158>
    8184:	e58d3000 	str	r3, [sp]
    8188:	e59f003c 	ldr	r0, [pc, #60]	; 81cc <notmain+0x15c>
    818c:	e3a0305a 	mov	r3, #90, 0	; 0x5a
    8190:	eb000046 	bl	82b0 <printk>
    8194:	eb00014e 	bl	86d4 <clean_reboot>
    8198:	000090f8 	.word	0x000090f8
    819c:	00008f9c 	.word	0x00008f9c
    81a0:	00008fa8 	.word	0x00008fa8
    81a4:	00008fd8 	.word	0x00008fd8
    81a8:	00008fe0 	.word	0x00008fe0
    81ac:	00009008 	.word	0x00009008
    81b0:	00009038 	.word	0x00009038
    81b4:	00009044 	.word	0x00009044
    81b8:	000090d8 	.word	0x000090d8
    81bc:	00009098 	.word	0x00009098
    81c0:	000090a8 	.word	0x000090a8
    81c4:	00009100 	.word	0x00009100
    81c8:	00008f18 	.word	0x00008f18
    81cc:	00009060 	.word	0x00009060
	...

000081e0 <sys_plus1_handler>:
    81e0:	e2800001 	add	r0, r0, #1, 0
    81e4:	e1b0f00e 	movs	pc, lr

000081e8 <sys_plus1>:
    81e8:	e52de004 	push	{lr}		; (str lr, [sp, #-4]!)
    81ec:	ef000001 	svc	0x00000001
    81f0:	e49de004 	pop	{lr}		; (ldr lr, [sp], #4)
    81f4:	e12fff1e 	bx	lr
    81f8:	e320f000 	nop	{0}
    81fc:	e320f000 	nop	{0}

00008200 <_interrupt_vector_orig>:
    8200:	e59ff030 	ldr	pc, [pc, #48]	; 8238 <_reset_asm>
    8204:	e59ff030 	ldr	pc, [pc, #48]	; 823c <_undefined_instruction_asm>
    8208:	e59ff030 	ldr	pc, [pc, #48]	; 8240 <_software_interrupt_asm>
    820c:	e59ff030 	ldr	pc, [pc, #48]	; 8244 <_prefetch_abort_asm>
    8210:	e59ff030 	ldr	pc, [pc, #48]	; 8248 <_data_abort_asm>
    8214:	e59ff01c 	ldr	pc, [pc, #28]	; 8238 <_reset_asm>
    8218:	e59ff02c 	ldr	pc, [pc, #44]	; 824c <_interrupt_asm>

0000821c <fast_interrupt_asm>:
    821c:	e24ee004 	sub	lr, lr, #4, 0
    8220:	e52de004 	push	{lr}		; (str lr, [sp, #-4]!)
    8224:	e92d1fff 	push	{r0, r1, r2, r3, r4, r5, r6, r7, r8, r9, sl, fp, ip}
    8228:	e1a0000e 	mov	r0, lr
    822c:	eb000141 	bl	8738 <fast_interrupt_vector>
    8230:	e8bd1fff 	pop	{r0, r1, r2, r3, r4, r5, r6, r7, r8, r9, sl, fp, ip}
    8234:	e8fd8000 	ldm	sp!, {pc}^

00008238 <_reset_asm>:
    8238:	00008858 	.word	0x00008858

0000823c <_undefined_instruction_asm>:
    823c:	00008874 	.word	0x00008874

00008240 <_software_interrupt_asm>:
    8240:	000081e0 	.word	0x000081e0

00008244 <_prefetch_abort_asm>:
    8244:	00008890 	.word	0x00008890

00008248 <_data_abort_asm>:
    8248:	000088ac 	.word	0x000088ac

0000824c <_interrupt_asm>:
    824c:	000088c8 	.word	0x000088c8
    8250:	e320f000 	nop	{0}
    8254:	e320f000 	nop	{0}
    8258:	e320f000 	nop	{0}
    825c:	e320f000 	nop	{0}

00008260 <_interrupt_vector_slow>:
    8260:	e59ff030 	ldr	pc, [pc, #48]	; 8298 <_interrupt_vector_fast+0x18>
    8264:	e59ff030 	ldr	pc, [pc, #48]	; 829c <_interrupt_vector_fast+0x1c>
    8268:	e59ff030 	ldr	pc, [pc, #48]	; 82a0 <_interrupt_vector_fast+0x20>
    826c:	e59ff030 	ldr	pc, [pc, #48]	; 82a4 <_interrupt_vector_fast+0x24>
    8270:	e59ff030 	ldr	pc, [pc, #48]	; 82a8 <_interrupt_vector_fast+0x28>
    8274:	e59ff030 	ldr	pc, [pc, #48]	; 82ac <_interrupt_vector_fast+0x2c>
    8278:	e320f000 	nop	{0}
    827c:	e320f000 	nop	{0}

00008280 <_interrupt_vector_fast>:
    8280:	e59ff010 	ldr	pc, [pc, #16]	; 8298 <_interrupt_vector_fast+0x18>
    8284:	e59ff010 	ldr	pc, [pc, #16]	; 829c <_interrupt_vector_fast+0x1c>
    8288:	eaffffd4 	b	81e0 <sys_plus1_handler>
    828c:	e59ff010 	ldr	pc, [pc, #16]	; 82a4 <_interrupt_vector_fast+0x24>
    8290:	e59ff010 	ldr	pc, [pc, #16]	; 82a8 <_interrupt_vector_fast+0x28>
    8294:	e59ff010 	ldr	pc, [pc, #16]	; 82ac <_interrupt_vector_fast+0x2c>
    8298:	00008858 	.word	0x00008858
    829c:	00008874 	.word	0x00008874
    82a0:	000081e0 	.word	0x000081e0
    82a4:	00008890 	.word	0x00008890
    82a8:	000088ac 	.word	0x000088ac
    82ac:	000088c8 	.word	0x000088c8

000082b0 <printk>:
    82b0:	e92d000f 	push	{r0, r1, r2, r3}
    82b4:	e52de004 	push	{lr}		; (str lr, [sp, #-4]!)
    82b8:	e24dd00c 	sub	sp, sp, #12, 0
    82bc:	e28d1014 	add	r1, sp, #20, 0
    82c0:	e58d1004 	str	r1, [sp, #4]
    82c4:	e59d0010 	ldr	r0, [sp, #16]
    82c8:	eb000047 	bl	83ec <vprintk>
    82cc:	e28dd00c 	add	sp, sp, #12, 0
    82d0:	e49de004 	pop	{lr}		; (ldr lr, [sp], #4)
    82d4:	e28dd010 	add	sp, sp, #16, 0
    82d8:	e12fff1e 	bx	lr

000082dc <emit_val>:
    82dc:	e92d4010 	push	{r4, lr}
    82e0:	e24dd030 	sub	sp, sp, #48, 0	; 0x30
    82e4:	e350000a 	cmp	r0, #10, 0
    82e8:	0a000014 	beq	8340 <emit_val+0x64>
    82ec:	e3500010 	cmp	r0, #16, 0
    82f0:	0a000022 	beq	8380 <emit_val+0xa4>
    82f4:	e3500002 	cmp	r0, #2, 0
    82f8:	0a000006 	beq	8318 <emit_val+0x3c>
    82fc:	e58d0000 	str	r0, [sp]
    8300:	e3a0301b 	mov	r3, #27, 0
    8304:	e59f20c0 	ldr	r2, [pc, #192]	; 83cc <emit_val+0xf0>
    8308:	e59f10c0 	ldr	r1, [pc, #192]	; 83d0 <emit_val+0xf4>
    830c:	e59f00c0 	ldr	r0, [pc, #192]	; 83d4 <emit_val+0xf8>
    8310:	ebffffe6 	bl	82b0 <printk>
    8314:	eb0000ee 	bl	86d4 <clean_reboot>
    8318:	e28d400c 	add	r4, sp, #12, 0
    831c:	e2012001 	and	r2, r1, #1, 0
    8320:	e59f00b0 	ldr	r0, [pc, #176]	; 83d8 <emit_val+0xfc>
    8324:	e7d02002 	ldrb	r2, [r0, r2]
    8328:	e5c42000 	strb	r2, [r4]
    832c:	e2844001 	add	r4, r4, #1, 0
    8330:	e3510001 	cmp	r1, #1, 0
    8334:	e1a010a1 	lsr	r1, r1, #1
    8338:	8afffff7 	bhi	831c <emit_val+0x40>
    833c:	ea00001d 	b	83b8 <emit_val+0xdc>
    8340:	e28d400c 	add	r4, sp, #12, 0
    8344:	e59f3090 	ldr	r3, [pc, #144]	; 83dc <emit_val+0x100>
    8348:	e0832193 	umull	r2, r3, r3, r1
    834c:	e1a031a3 	lsr	r3, r3, #3
    8350:	e1a00003 	mov	r0, r3
    8354:	e0833103 	add	r3, r3, r3, lsl #2
    8358:	e0413083 	sub	r3, r1, r3, lsl #1
    835c:	e59fc07c 	ldr	ip, [pc, #124]	; 83e0 <emit_val+0x104>
    8360:	e7dcc003 	ldrb	ip, [ip, r3]
    8364:	e5c4c000 	strb	ip, [r4]
    8368:	e2844001 	add	r4, r4, #1, 0
    836c:	e1a03001 	mov	r3, r1
    8370:	e1a01000 	mov	r1, r0
    8374:	e3530009 	cmp	r3, #9, 0
    8378:	8afffff1 	bhi	8344 <emit_val+0x68>
    837c:	ea00000d 	b	83b8 <emit_val+0xdc>
    8380:	e28d400c 	add	r4, sp, #12, 0
    8384:	e201200f 	and	r2, r1, #15, 0
    8388:	e59f0054 	ldr	r0, [pc, #84]	; 83e4 <emit_val+0x108>
    838c:	e7d02002 	ldrb	r2, [r0, r2]
    8390:	e5c42000 	strb	r2, [r4]
    8394:	e2844001 	add	r4, r4, #1, 0
    8398:	e351000f 	cmp	r1, #15, 0
    839c:	e1a01221 	lsr	r1, r1, #4
    83a0:	8afffff7 	bhi	8384 <emit_val+0xa8>
    83a4:	ea000003 	b	83b8 <emit_val+0xdc>
    83a8:	e59f3038 	ldr	r3, [pc, #56]	; 83e8 <emit_val+0x10c>
    83ac:	e5933000 	ldr	r3, [r3]
    83b0:	e5740001 	ldrb	r0, [r4, #-1]!
    83b4:	e12fff33 	blx	r3
    83b8:	e28d300c 	add	r3, sp, #12, 0
    83bc:	e1540003 	cmp	r4, r3
    83c0:	8afffff8 	bhi	83a8 <emit_val+0xcc>
    83c4:	e28dd030 	add	sp, sp, #48, 0	; 0x30
    83c8:	e8bd8010 	pop	{r4, pc}
    83cc:	000091c8 	.word	0x000091c8
    83d0:	00009110 	.word	0x00009110
    83d4:	00009120 	.word	0x00009120
    83d8:	00009144 	.word	0x00009144
    83dc:	cccccccd 	.word	0xcccccccd
    83e0:	00009148 	.word	0x00009148
    83e4:	00009154 	.word	0x00009154
    83e8:	00009568 	.word	0x00009568

000083ec <vprintk>:
    83ec:	e92d4030 	push	{r4, r5, lr}
    83f0:	e24dd014 	sub	sp, sp, #20, 0
    83f4:	e1a04000 	mov	r4, r0
    83f8:	e58d100c 	str	r1, [sp, #12]
    83fc:	ea000003 	b	8410 <vprintk+0x24>
    8400:	e59f3288 	ldr	r3, [pc, #648]	; 8690 <vprintk+0x2a4>
    8404:	e5933000 	ldr	r3, [r3]
    8408:	e12fff33 	blx	r3
    840c:	e2844001 	add	r4, r4, #1, 0
    8410:	e5d40000 	ldrb	r0, [r4]
    8414:	e3500000 	cmp	r0, #0, 0
    8418:	0a00009a 	beq	8688 <vprintk+0x29c>
    841c:	e3500025 	cmp	r0, #37, 0	; 0x25
    8420:	1afffff6 	bne	8400 <vprintk+0x14>
    8424:	e2845001 	add	r5, r4, #1, 0
    8428:	e5d42001 	ldrb	r2, [r4, #1]
    842c:	e2423062 	sub	r3, r2, #98, 0	; 0x62
    8430:	e3530016 	cmp	r3, #22, 0
    8434:	979ff103 	ldrls	pc, [pc, r3, lsl #2]
    8438:	ea00008b 	b	866c <vprintk+0x280>
    843c:	00008498 	.word	0x00008498
    8440:	000084d8 	.word	0x000084d8
    8444:	000085f0 	.word	0x000085f0
    8448:	0000866c 	.word	0x0000866c
    844c:	0000866c 	.word	0x0000866c
    8450:	0000866c 	.word	0x0000866c
    8454:	0000866c 	.word	0x0000866c
    8458:	0000866c 	.word	0x0000866c
    845c:	0000866c 	.word	0x0000866c
    8460:	0000866c 	.word	0x0000866c
    8464:	000084fc 	.word	0x000084fc
    8468:	0000866c 	.word	0x0000866c
    846c:	0000866c 	.word	0x0000866c
    8470:	0000866c 	.word	0x0000866c
    8474:	000085b4 	.word	0x000085b4
    8478:	0000866c 	.word	0x0000866c
    847c:	0000866c 	.word	0x0000866c
    8480:	00008634 	.word	0x00008634
    8484:	0000866c 	.word	0x0000866c
    8488:	000084b8 	.word	0x000084b8
    848c:	0000866c 	.word	0x0000866c
    8490:	0000866c 	.word	0x0000866c
    8494:	000085b4 	.word	0x000085b4
    8498:	e59d300c 	ldr	r3, [sp, #12]
    849c:	e2832004 	add	r2, r3, #4, 0
    84a0:	e58d200c 	str	r2, [sp, #12]
    84a4:	e5931000 	ldr	r1, [r3]
    84a8:	e3a00002 	mov	r0, #2, 0
    84ac:	ebffff8a 	bl	82dc <emit_val>
    84b0:	e1a04005 	mov	r4, r5
    84b4:	eaffffd4 	b	840c <vprintk+0x20>
    84b8:	e59d300c 	ldr	r3, [sp, #12]
    84bc:	e2832004 	add	r2, r3, #4, 0
    84c0:	e58d200c 	str	r2, [sp, #12]
    84c4:	e5931000 	ldr	r1, [r3]
    84c8:	e3a0000a 	mov	r0, #10, 0
    84cc:	ebffff82 	bl	82dc <emit_val>
    84d0:	e1a04005 	mov	r4, r5
    84d4:	eaffffcc 	b	840c <vprintk+0x20>
    84d8:	e59f31b0 	ldr	r3, [pc, #432]	; 8690 <vprintk+0x2a4>
    84dc:	e5932000 	ldr	r2, [r3]
    84e0:	e59d300c 	ldr	r3, [sp, #12]
    84e4:	e2831004 	add	r1, r3, #4, 0
    84e8:	e58d100c 	str	r1, [sp, #12]
    84ec:	e5930000 	ldr	r0, [r3]
    84f0:	e12fff32 	blx	r2
    84f4:	e1a04005 	mov	r4, r5
    84f8:	eaffffc3 	b	840c <vprintk+0x20>
    84fc:	e2842002 	add	r2, r4, #2, 0
    8500:	e5d43002 	ldrb	r3, [r4, #2]
    8504:	e353006c 	cmp	r3, #108, 0	; 0x6c
    8508:	1a000018 	bne	8570 <vprintk+0x184>
    850c:	e2845003 	add	r5, r4, #3, 0
    8510:	e5d43003 	ldrb	r3, [r4, #3]
    8514:	e3530078 	cmp	r3, #120, 0	; 0x78
    8518:	1a00001b 	bne	858c <vprintk+0x1a0>
    851c:	e59f416c 	ldr	r4, [pc, #364]	; 8690 <vprintk+0x2a4>
    8520:	e5943000 	ldr	r3, [r4]
    8524:	e3a00030 	mov	r0, #48, 0	; 0x30
    8528:	e12fff33 	blx	r3
    852c:	e5943000 	ldr	r3, [r4]
    8530:	e3a00078 	mov	r0, #120, 0	; 0x78
    8534:	e12fff33 	blx	r3
    8538:	e59d300c 	ldr	r3, [sp, #12]
    853c:	e2833007 	add	r3, r3, #7, 0
    8540:	e3c33007 	bic	r3, r3, #7, 0
    8544:	e2832008 	add	r2, r3, #8, 0
    8548:	e58d200c 	str	r2, [sp, #12]
    854c:	e5934000 	ldr	r4, [r3]
    8550:	e5931004 	ldr	r1, [r3, #4]
    8554:	e3510000 	cmp	r1, #0, 0
    8558:	1a000012 	bne	85a8 <vprintk+0x1bc>
    855c:	e1a01004 	mov	r1, r4
    8560:	e3a00010 	mov	r0, #16, 0
    8564:	ebffff5c 	bl	82dc <emit_val>
    8568:	e1a04005 	mov	r4, r5
    856c:	eaffffa6 	b	840c <vprintk+0x20>
    8570:	e58d2000 	str	r2, [sp]
    8574:	e3a0303b 	mov	r3, #59, 0	; 0x3b
    8578:	e59f2114 	ldr	r2, [pc, #276]	; 8694 <vprintk+0x2a8>
    857c:	e59f1114 	ldr	r1, [pc, #276]	; 8698 <vprintk+0x2ac>
    8580:	e59f0114 	ldr	r0, [pc, #276]	; 869c <vprintk+0x2b0>
    8584:	ebffff49 	bl	82b0 <printk>
    8588:	eb000051 	bl	86d4 <clean_reboot>
    858c:	e58d5000 	str	r5, [sp]
    8590:	e3a0303e 	mov	r3, #62, 0	; 0x3e
    8594:	e59f20f8 	ldr	r2, [pc, #248]	; 8694 <vprintk+0x2a8>
    8598:	e59f10f8 	ldr	r1, [pc, #248]	; 8698 <vprintk+0x2ac>
    859c:	e59f00f8 	ldr	r0, [pc, #248]	; 869c <vprintk+0x2b0>
    85a0:	ebffff42 	bl	82b0 <printk>
    85a4:	eb00004a 	bl	86d4 <clean_reboot>
    85a8:	e3a00010 	mov	r0, #16, 0
    85ac:	ebffff4a 	bl	82dc <emit_val>
    85b0:	eaffffe9 	b	855c <vprintk+0x170>
    85b4:	e59f40d4 	ldr	r4, [pc, #212]	; 8690 <vprintk+0x2a4>
    85b8:	e5943000 	ldr	r3, [r4]
    85bc:	e3a00030 	mov	r0, #48, 0	; 0x30
    85c0:	e12fff33 	blx	r3
    85c4:	e5943000 	ldr	r3, [r4]
    85c8:	e3a00078 	mov	r0, #120, 0	; 0x78
    85cc:	e12fff33 	blx	r3
    85d0:	e59d300c 	ldr	r3, [sp, #12]
    85d4:	e2832004 	add	r2, r3, #4, 0
    85d8:	e58d200c 	str	r2, [sp, #12]
    85dc:	e5931000 	ldr	r1, [r3]
    85e0:	e3a00010 	mov	r0, #16, 0
    85e4:	ebffff3c 	bl	82dc <emit_val>
    85e8:	e1a04005 	mov	r4, r5
    85ec:	eaffff86 	b	840c <vprintk+0x20>
    85f0:	e59d300c 	ldr	r3, [sp, #12]
    85f4:	e2832004 	add	r2, r3, #4, 0
    85f8:	e58d200c 	str	r2, [sp, #12]
    85fc:	e5934000 	ldr	r4, [r3]
    8600:	e3540000 	cmp	r4, #0, 0
    8604:	ba000004 	blt	861c <vprintk+0x230>
    8608:	e1a01004 	mov	r1, r4
    860c:	e3a0000a 	mov	r0, #10, 0
    8610:	ebffff31 	bl	82dc <emit_val>
    8614:	e1a04005 	mov	r4, r5
    8618:	eaffff7b 	b	840c <vprintk+0x20>
    861c:	e59f306c 	ldr	r3, [pc, #108]	; 8690 <vprintk+0x2a4>
    8620:	e5933000 	ldr	r3, [r3]
    8624:	e3a0002d 	mov	r0, #45, 0	; 0x2d
    8628:	e12fff33 	blx	r3
    862c:	e2644000 	rsb	r4, r4, #0, 0
    8630:	eafffff4 	b	8608 <vprintk+0x21c>
    8634:	e59d300c 	ldr	r3, [sp, #12]
    8638:	e2832004 	add	r2, r3, #4, 0
    863c:	e58d200c 	str	r2, [sp, #12]
    8640:	e5934000 	ldr	r4, [r3]
    8644:	e5d40000 	ldrb	r0, [r4]
    8648:	e3500000 	cmp	r0, #0, 0
    864c:	0a000004 	beq	8664 <vprintk+0x278>
    8650:	e59f3038 	ldr	r3, [pc, #56]	; 8690 <vprintk+0x2a4>
    8654:	e5933000 	ldr	r3, [r3]
    8658:	e12fff33 	blx	r3
    865c:	e2844001 	add	r4, r4, #1, 0
    8660:	eafffff7 	b	8644 <vprintk+0x258>
    8664:	e1a04005 	mov	r4, r5
    8668:	eaffff67 	b	840c <vprintk+0x20>
    866c:	e58d2000 	str	r2, [sp]
    8670:	e3a03062 	mov	r3, #98, 0	; 0x62
    8674:	e59f2018 	ldr	r2, [pc, #24]	; 8694 <vprintk+0x2a8>
    8678:	e59f1018 	ldr	r1, [pc, #24]	; 8698 <vprintk+0x2ac>
    867c:	e59f001c 	ldr	r0, [pc, #28]	; 86a0 <vprintk+0x2b4>
    8680:	ebffff0a 	bl	82b0 <printk>
    8684:	eb000012 	bl	86d4 <clean_reboot>
    8688:	e28dd014 	add	sp, sp, #20, 0
    868c:	e8bd8030 	pop	{r4, r5, pc}
    8690:	00009568 	.word	0x00009568
    8694:	000091d4 	.word	0x000091d4
    8698:	00009110 	.word	0x00009110
    869c:	00009168 	.word	0x00009168
    86a0:	000091a0 	.word	0x000091a0

000086a4 <default_putchar>:
    86a4:	e92d4010 	push	{r4, lr}
    86a8:	e1a04000 	mov	r4, r0
    86ac:	e6ef0070 	uxtb	r0, r0
    86b0:	eb0000d3 	bl	8a04 <uart_put8>
    86b4:	e1a00004 	mov	r0, r4
    86b8:	e8bd8010 	pop	{r4, pc}

000086bc <rpi_putchar_set>:
    86bc:	e59f300c 	ldr	r3, [pc, #12]	; 86d0 <rpi_putchar_set+0x14>
    86c0:	e5932000 	ldr	r2, [r3]
    86c4:	e5830000 	str	r0, [r3]
    86c8:	e1a00002 	mov	r0, r2
    86cc:	e12fff1e 	bx	lr
    86d0:	00009568 	.word	0x00009568

000086d4 <clean_reboot>:
    86d4:	e92d4010 	push	{r4, lr}
    86d8:	e59f0010 	ldr	r0, [pc, #16]	; 86f0 <clean_reboot+0x1c>
    86dc:	eb000114 	bl	8b34 <putk>
    86e0:	eb0000fc 	bl	8ad8 <uart_flush_tx>
    86e4:	e3a0000a 	mov	r0, #10, 0
    86e8:	eb00004e 	bl	8828 <delay_ms>
    86ec:	eb000029 	bl	8798 <rpi_reboot>
    86f0:	000091dc 	.word	0x000091dc

000086f4 <program_end>:
    86f4:	e59f0000 	ldr	r0, [pc]	; 86fc <program_end+0x8>
    86f8:	e12fff1e 	bx	lr
    86fc:	00009570 	.word	0x00009570

00008700 <_cstart>:
    8700:	e92d4010 	push	{r4, lr}
    8704:	e59f3024 	ldr	r3, [pc, #36]	; 8730 <_cstart+0x30>
    8708:	e59f2024 	ldr	r2, [pc, #36]	; 8734 <_cstart+0x34>
    870c:	e1530002 	cmp	r3, r2
    8710:	33a02000 	movcc	r2, #0, 0
    8714:	34c32001 	strbcc	r2, [r3], #1
    8718:	3afffffa 	bcc	8708 <_cstart+0x8>
    871c:	eb00007e 	bl	891c <uart_init>
    8720:	e3a03001 	mov	r3, #1, 0
    8724:	ee0f3f1c 	mcr	15, 0, r3, cr15, cr12, {0}
    8728:	ebfffe50 	bl	8070 <notmain>
    872c:	ebffffe8 	bl	86d4 <clean_reboot>
    8730:	0000956c 	.word	0x0000956c
    8734:	00009570 	.word	0x00009570

00008738 <fast_interrupt_vector>:
    8738:	e52de004 	push	{lr}		; (str lr, [sp, #-4]!)
    873c:	e24dd00c 	sub	sp, sp, #12, 0
    8740:	e58d0000 	str	r0, [sp]
    8744:	e3a03003 	mov	r3, #3, 0
    8748:	e59f200c 	ldr	r2, [pc, #12]	; 875c <fast_interrupt_vector+0x24>
    874c:	e59f100c 	ldr	r1, [pc, #12]	; 8760 <fast_interrupt_vector+0x28>
    8750:	e59f000c 	ldr	r0, [pc, #12]	; 8764 <fast_interrupt_vector+0x2c>
    8754:	ebfffed5 	bl	82b0 <printk>
    8758:	ebffffdd 	bl	86d4 <clean_reboot>
    875c:	00009240 	.word	0x00009240
    8760:	000091e8 	.word	0x000091e8
    8764:	0000920c 	.word	0x0000920c

00008768 <fiq_vector>:
    8768:	e52de004 	push	{lr}		; (str lr, [sp, #-4]!)
    876c:	e24dd00c 	sub	sp, sp, #12, 0
    8770:	e58d0000 	str	r0, [sp]
    8774:	e3a03006 	mov	r3, #6, 0
    8778:	e59f200c 	ldr	r2, [pc, #12]	; 878c <fiq_vector+0x24>
    877c:	e59f100c 	ldr	r1, [pc, #12]	; 8790 <fiq_vector+0x28>
    8780:	e59f000c 	ldr	r0, [pc, #12]	; 8794 <fiq_vector+0x2c>
    8784:	ebfffec9 	bl	82b0 <printk>
    8788:	ebffffd1 	bl	86d4 <clean_reboot>
    878c:	00009258 	.word	0x00009258
    8790:	000091e8 	.word	0x000091e8
    8794:	0000920c 	.word	0x0000920c

00008798 <rpi_reboot>:
    8798:	e92d4010 	push	{r4, lr}
    879c:	eb0000cd 	bl	8ad8 <uart_flush_tx>
    87a0:	e3a0000a 	mov	r0, #10, 0
    87a4:	eb00001f 	bl	8828 <delay_ms>
    87a8:	e59f1014 	ldr	r1, [pc, #20]	; 87c4 <rpi_reboot+0x2c>
    87ac:	e59f0014 	ldr	r0, [pc, #20]	; 87c8 <rpi_reboot+0x30>
    87b0:	ebfffe1b 	bl	8024 <PUT32>
    87b4:	e59f1010 	ldr	r1, [pc, #16]	; 87cc <rpi_reboot+0x34>
    87b8:	e59f0010 	ldr	r0, [pc, #16]	; 87d0 <rpi_reboot+0x38>
    87bc:	ebfffe18 	bl	8024 <PUT32>
    87c0:	eafffffe 	b	87c0 <rpi_reboot+0x28>
    87c4:	5a000001 	.word	0x5a000001
    87c8:	20100024 	.word	0x20100024
    87cc:	5a000020 	.word	0x5a000020
    87d0:	2010001c 	.word	0x2010001c

000087d4 <timer_get_usec_raw>:
    87d4:	e92d4010 	push	{r4, lr}
    87d8:	e59f0004 	ldr	r0, [pc, #4]	; 87e4 <timer_get_usec_raw+0x10>
    87dc:	ebfffe12 	bl	802c <GET32>
    87e0:	e8bd8010 	pop	{r4, pc}
    87e4:	20003004 	.word	0x20003004

000087e8 <timer_get_usec>:
    87e8:	e92d4010 	push	{r4, lr}
    87ec:	eb000125 	bl	8c88 <dev_barrier>
    87f0:	ebfffff7 	bl	87d4 <timer_get_usec_raw>
    87f4:	e1a04000 	mov	r4, r0
    87f8:	eb000122 	bl	8c88 <dev_barrier>
    87fc:	e1a00004 	mov	r0, r4
    8800:	e8bd8010 	pop	{r4, pc}

00008804 <delay_us>:
    8804:	e92d4070 	push	{r4, r5, r6, lr}
    8808:	e1a05000 	mov	r5, r0
    880c:	ebfffff5 	bl	87e8 <timer_get_usec>
    8810:	e1a04000 	mov	r4, r0
    8814:	ebfffff3 	bl	87e8 <timer_get_usec>
    8818:	e0400004 	sub	r0, r0, r4
    881c:	e1500005 	cmp	r0, r5
    8820:	3afffffb 	bcc	8814 <delay_us+0x10>
    8824:	e8bd8070 	pop	{r4, r5, r6, pc}

00008828 <delay_ms>:
    8828:	e92d4010 	push	{r4, lr}
    882c:	e0603280 	rsb	r3, r0, r0, lsl #5
    8830:	e0800103 	add	r0, r0, r3, lsl #2
    8834:	e1a00180 	lsl	r0, r0, #3
    8838:	ebfffff1 	bl	8804 <delay_us>
    883c:	e8bd8010 	pop	{r4, pc}

00008840 <delay_sec>:
    8840:	e92d4010 	push	{r4, lr}
    8844:	e0603280 	rsb	r3, r0, r0, lsl #5
    8848:	e0800103 	add	r0, r0, r3, lsl #2
    884c:	e1a00180 	lsl	r0, r0, #3
    8850:	ebfffff4 	bl	8828 <delay_ms>
    8854:	e8bd8010 	pop	{r4, pc}

00008858 <unhandled_reset>:
    8858:	e24ee004 	sub	lr, lr, #4, 0
    885c:	e3a0d409 	mov	sp, #150994944	; 0x9000000
    8860:	e92d5fff 	push	{r0, r1, r2, r3, r4, r5, r6, r7, r8, r9, sl, fp, ip, lr}
    8864:	e1a0000e 	mov	r0, lr
    8868:	eb0000e2 	bl	8bf8 <reset_vector>
    886c:	e8bd5fff 	pop	{r0, r1, r2, r3, r4, r5, r6, r7, r8, r9, sl, fp, ip, lr}
    8870:	e1b0f00e 	movs	pc, lr

00008874 <unhandled_undefined_instruction>:
    8874:	e24ee004 	sub	lr, lr, #4, 0
    8878:	e3a0d409 	mov	sp, #150994944	; 0x9000000
    887c:	e92d5fff 	push	{r0, r1, r2, r3, r4, r5, r6, r7, r8, r9, sl, fp, ip, lr}
    8880:	e1a0000e 	mov	r0, lr
    8884:	eb0000f3 	bl	8c58 <undefined_instruction_vector>
    8888:	e8bd5fff 	pop	{r0, r1, r2, r3, r4, r5, r6, r7, r8, r9, sl, fp, ip, lr}
    888c:	e1b0f00e 	movs	pc, lr

00008890 <unhandled_prefetch_abort>:
    8890:	e24ee004 	sub	lr, lr, #4, 0
    8894:	e3a0d409 	mov	sp, #150994944	; 0x9000000
    8898:	e92d5fff 	push	{r0, r1, r2, r3, r4, r5, r6, r7, r8, r9, sl, fp, ip, lr}
    889c:	e1a0000e 	mov	r0, lr
    88a0:	eb0000c8 	bl	8bc8 <prefetch_abort_vector>
    88a4:	e8bd5fff 	pop	{r0, r1, r2, r3, r4, r5, r6, r7, r8, r9, sl, fp, ip, lr}
    88a8:	e1b0f00e 	movs	pc, lr

000088ac <unhandled_data_abort>:
    88ac:	e24ee008 	sub	lr, lr, #8, 0
    88b0:	e3a0d409 	mov	sp, #150994944	; 0x9000000
    88b4:	e92d5fff 	push	{r0, r1, r2, r3, r4, r5, r6, r7, r8, r9, sl, fp, ip, lr}
    88b8:	e1a0000e 	mov	r0, lr
    88bc:	eb0000a9 	bl	8b68 <data_abort_vector>
    88c0:	e8bd5fff 	pop	{r0, r1, r2, r3, r4, r5, r6, r7, r8, r9, sl, fp, ip, lr}
    88c4:	e1b0f00e 	movs	pc, lr

000088c8 <unhandled_interrupt>:
    88c8:	e24ee004 	sub	lr, lr, #4, 0
    88cc:	e3a0d409 	mov	sp, #150994944	; 0x9000000
    88d0:	e92d5fff 	push	{r0, r1, r2, r3, r4, r5, r6, r7, r8, r9, sl, fp, ip, lr}
    88d4:	e1a0000e 	mov	r0, lr
    88d8:	eb0000ae 	bl	8b98 <int_vector>
    88dc:	e8bd5fff 	pop	{r0, r1, r2, r3, r4, r5, r6, r7, r8, r9, sl, fp, ip, lr}
    88e0:	e1b0f00e 	movs	pc, lr

000088e4 <unhandled_swi>:
    88e4:	e24ee004 	sub	lr, lr, #4, 0
    88e8:	e3a0d409 	mov	sp, #150994944	; 0x9000000
    88ec:	e92d5fff 	push	{r0, r1, r2, r3, r4, r5, r6, r7, r8, r9, sl, fp, ip, lr}
    88f0:	e1a0000e 	mov	r0, lr
    88f4:	eb0000cb 	bl	8c28 <syscall_vector>
    88f8:	e8bd5fff 	pop	{r0, r1, r2, r3, r4, r5, r6, r7, r8, r9, sl, fp, ip, lr}
    88fc:	e1b0f00e 	movs	pc, lr

00008900 <unhandled_fiq>:
    8900:	e24ee004 	sub	lr, lr, #4, 0
    8904:	e3a0d409 	mov	sp, #150994944	; 0x9000000
    8908:	e92d5fff 	push	{r0, r1, r2, r3, r4, r5, r6, r7, r8, r9, sl, fp, ip, lr}
    890c:	e1a0000e 	mov	r0, lr
    8910:	ebffff94 	bl	8768 <fiq_vector>
    8914:	e8bd5fff 	pop	{r0, r1, r2, r3, r4, r5, r6, r7, r8, r9, sl, fp, ip, lr}
    8918:	e1b0f00e 	movs	pc, lr

0000891c <uart_init>:
    891c:	e92d4010 	push	{r4, lr}
    8920:	eb0000d8 	bl	8c88 <dev_barrier>
    8924:	e3a01002 	mov	r1, #2, 0
    8928:	e3a0000e 	mov	r0, #14, 0
    892c:	eb000141 	bl	8e38 <gpio_set_function>
    8930:	e3a01002 	mov	r1, #2, 0
    8934:	e3a0000f 	mov	r0, #15, 0
    8938:	eb00013e 	bl	8e38 <gpio_set_function>
    893c:	eb0000d1 	bl	8c88 <dev_barrier>
    8940:	e59f4074 	ldr	r4, [pc, #116]	; 89bc <uart_init+0xa0>
    8944:	e1a00004 	mov	r0, r4
    8948:	ebfffdb7 	bl	802c <GET32>
    894c:	e3801001 	orr	r1, r0, #1, 0
    8950:	e1a00004 	mov	r0, r4
    8954:	ebfffdb2 	bl	8024 <PUT32>
    8958:	eb0000ca 	bl	8c88 <dev_barrier>
    895c:	e284405c 	add	r4, r4, #92, 0	; 0x5c
    8960:	e3a01000 	mov	r1, #0, 0
    8964:	e1a00004 	mov	r0, r4
    8968:	ebfffdad 	bl	8024 <PUT32>
    896c:	e3a01000 	mov	r1, #0, 0
    8970:	e59f0048 	ldr	r0, [pc, #72]	; 89c0 <uart_init+0xa4>
    8974:	ebfffdaa 	bl	8024 <PUT32>
    8978:	e3a01006 	mov	r1, #6, 0
    897c:	e59f0040 	ldr	r0, [pc, #64]	; 89c4 <uart_init+0xa8>
    8980:	ebfffda7 	bl	8024 <PUT32>
    8984:	e3a01000 	mov	r1, #0, 0
    8988:	e59f0038 	ldr	r0, [pc, #56]	; 89c8 <uart_init+0xac>
    898c:	ebfffda4 	bl	8024 <PUT32>
    8990:	e59f1034 	ldr	r1, [pc, #52]	; 89cc <uart_init+0xb0>
    8994:	e59f0034 	ldr	r0, [pc, #52]	; 89d0 <uart_init+0xb4>
    8998:	ebfffda1 	bl	8024 <PUT32>
    899c:	e3a01003 	mov	r1, #3, 0
    89a0:	e59f002c 	ldr	r0, [pc, #44]	; 89d4 <uart_init+0xb8>
    89a4:	ebfffd9e 	bl	8024 <PUT32>
    89a8:	e3a01003 	mov	r1, #3, 0
    89ac:	e1a00004 	mov	r0, r4
    89b0:	ebfffd9b 	bl	8024 <PUT32>
    89b4:	eb0000b3 	bl	8c88 <dev_barrier>
    89b8:	e8bd8010 	pop	{r4, pc}
    89bc:	20215004 	.word	0x20215004
    89c0:	20215050 	.word	0x20215050
    89c4:	20215048 	.word	0x20215048
    89c8:	20215044 	.word	0x20215044
    89cc:	0000010e 	.word	0x0000010e
    89d0:	20215068 	.word	0x20215068
    89d4:	2021504c 	.word	0x2021504c

000089d8 <uart_can_put8>:
    89d8:	e92d4010 	push	{r4, lr}
    89dc:	eb0000a9 	bl	8c88 <dev_barrier>
    89e0:	e59f0018 	ldr	r0, [pc, #24]	; 8a00 <uart_can_put8+0x28>
    89e4:	ebfffd90 	bl	802c <GET32>
    89e8:	e3100020 	tst	r0, #32, 0
    89ec:	13a04001 	movne	r4, #1, 0
    89f0:	03a04000 	moveq	r4, #0, 0
    89f4:	eb0000a3 	bl	8c88 <dev_barrier>
    89f8:	e1a00004 	mov	r0, r4
    89fc:	e8bd8010 	pop	{r4, pc}
    8a00:	20215054 	.word	0x20215054

00008a04 <uart_put8>:
    8a04:	e92d4010 	push	{r4, lr}
    8a08:	e1a04000 	mov	r4, r0
    8a0c:	eb00009d 	bl	8c88 <dev_barrier>
    8a10:	ebfffff0 	bl	89d8 <uart_can_put8>
    8a14:	e3500000 	cmp	r0, #0, 0
    8a18:	0afffffc 	beq	8a10 <uart_put8+0xc>
    8a1c:	e1a01004 	mov	r1, r4
    8a20:	e59f000c 	ldr	r0, [pc, #12]	; 8a34 <uart_put8+0x30>
    8a24:	ebfffd7e 	bl	8024 <PUT32>
    8a28:	eb000096 	bl	8c88 <dev_barrier>
    8a2c:	e3a00001 	mov	r0, #1, 0
    8a30:	e8bd8010 	pop	{r4, pc}
    8a34:	20215040 	.word	0x20215040

00008a38 <uart_has_data>:
    8a38:	e92d4010 	push	{r4, lr}
    8a3c:	eb000091 	bl	8c88 <dev_barrier>
    8a40:	e59f0010 	ldr	r0, [pc, #16]	; 8a58 <uart_has_data+0x20>
    8a44:	ebfffd78 	bl	802c <GET32>
    8a48:	e2004001 	and	r4, r0, #1, 0
    8a4c:	eb00008d 	bl	8c88 <dev_barrier>
    8a50:	e1a00004 	mov	r0, r4
    8a54:	e8bd8010 	pop	{r4, pc}
    8a58:	20215054 	.word	0x20215054

00008a5c <uart_get8>:
    8a5c:	e92d4010 	push	{r4, lr}
    8a60:	eb000088 	bl	8c88 <dev_barrier>
    8a64:	ebfffff3 	bl	8a38 <uart_has_data>
    8a68:	e3500000 	cmp	r0, #0, 0
    8a6c:	0afffffc 	beq	8a64 <uart_get8+0x8>
    8a70:	e59f0010 	ldr	r0, [pc, #16]	; 8a88 <uart_get8+0x2c>
    8a74:	ebfffd6c 	bl	802c <GET32>
    8a78:	e6ef4070 	uxtb	r4, r0
    8a7c:	eb000081 	bl	8c88 <dev_barrier>
    8a80:	e1a00004 	mov	r0, r4
    8a84:	e8bd8010 	pop	{r4, pc}
    8a88:	20215040 	.word	0x20215040

00008a8c <uart_get8_async>:
    8a8c:	e92d4010 	push	{r4, lr}
    8a90:	ebffffe8 	bl	8a38 <uart_has_data>
    8a94:	e3500000 	cmp	r0, #0, 0
    8a98:	0a000001 	beq	8aa4 <uart_get8_async+0x18>
    8a9c:	ebffffee 	bl	8a5c <uart_get8>
    8aa0:	e8bd8010 	pop	{r4, pc}
    8aa4:	e3e00000 	mvn	r0, #0, 0
    8aa8:	e8bd8010 	pop	{r4, pc}

00008aac <uart_tx_is_empty>:
    8aac:	e92d4010 	push	{r4, lr}
    8ab0:	eb000074 	bl	8c88 <dev_barrier>
    8ab4:	e59f0018 	ldr	r0, [pc, #24]	; 8ad4 <uart_tx_is_empty+0x28>
    8ab8:	ebfffd5b 	bl	802c <GET32>
    8abc:	e3100040 	tst	r0, #64, 0	; 0x40
    8ac0:	13a04001 	movne	r4, #1, 0
    8ac4:	03a04000 	moveq	r4, #0, 0
    8ac8:	eb00006e 	bl	8c88 <dev_barrier>
    8acc:	e1a00004 	mov	r0, r4
    8ad0:	e8bd8010 	pop	{r4, pc}
    8ad4:	20215054 	.word	0x20215054

00008ad8 <uart_flush_tx>:
    8ad8:	e92d4010 	push	{r4, lr}
    8adc:	ebfffff2 	bl	8aac <uart_tx_is_empty>
    8ae0:	e3500000 	cmp	r0, #0, 0
    8ae4:	18bd8010 	popne	{r4, pc}
    8ae8:	eb00006c 	bl	8ca0 <rpi_wait>
    8aec:	eafffffa 	b	8adc <uart_flush_tx+0x4>

00008af0 <uart_disable>:
    8af0:	e92d4010 	push	{r4, lr}
    8af4:	eb000063 	bl	8c88 <dev_barrier>
    8af8:	ebfffff6 	bl	8ad8 <uart_flush_tx>
    8afc:	e3a01000 	mov	r1, #0, 0
    8b00:	e59f0024 	ldr	r0, [pc, #36]	; 8b2c <uart_disable+0x3c>
    8b04:	ebfffd46 	bl	8024 <PUT32>
    8b08:	eb00005e 	bl	8c88 <dev_barrier>
    8b0c:	e59f401c 	ldr	r4, [pc, #28]	; 8b30 <uart_disable+0x40>
    8b10:	e1a00004 	mov	r0, r4
    8b14:	ebfffd44 	bl	802c <GET32>
    8b18:	e3c01001 	bic	r1, r0, #1, 0
    8b1c:	e1a00004 	mov	r0, r4
    8b20:	ebfffd3f 	bl	8024 <PUT32>
    8b24:	eb000057 	bl	8c88 <dev_barrier>
    8b28:	e8bd8010 	pop	{r4, pc}
    8b2c:	20215060 	.word	0x20215060
    8b30:	20215004 	.word	0x20215004

00008b34 <putk>:
    8b34:	e92d4010 	push	{r4, lr}
    8b38:	e1a04000 	mov	r4, r0
    8b3c:	e5d40000 	ldrb	r0, [r4]
    8b40:	e3500000 	cmp	r0, #0, 0
    8b44:	0a000004 	beq	8b5c <putk+0x28>
    8b48:	e59f3014 	ldr	r3, [pc, #20]	; 8b64 <putk+0x30>
    8b4c:	e5933000 	ldr	r3, [r3]
    8b50:	e12fff33 	blx	r3
    8b54:	e2844001 	add	r4, r4, #1, 0
    8b58:	eafffff7 	b	8b3c <putk+0x8>
    8b5c:	e3a00001 	mov	r0, #1, 0
    8b60:	e8bd8010 	pop	{r4, pc}
    8b64:	00009568 	.word	0x00009568

00008b68 <data_abort_vector>:
    8b68:	e52de004 	push	{lr}		; (str lr, [sp, #-4]!)
    8b6c:	e24dd00c 	sub	sp, sp, #12, 0
    8b70:	e58d0000 	str	r0, [sp]
    8b74:	e3a03003 	mov	r3, #3, 0
    8b78:	e59f200c 	ldr	r2, [pc, #12]	; 8b8c <data_abort_vector+0x24>
    8b7c:	e59f100c 	ldr	r1, [pc, #12]	; 8b90 <data_abort_vector+0x28>
    8b80:	e59f000c 	ldr	r0, [pc, #12]	; 8b94 <data_abort_vector+0x2c>
    8b84:	ebfffdc9 	bl	82b0 <printk>
    8b88:	ebfffed1 	bl	86d4 <clean_reboot>
    8b8c:	000092c0 	.word	0x000092c0
    8b90:	00009264 	.word	0x00009264
    8b94:	00009290 	.word	0x00009290

00008b98 <int_vector>:
    8b98:	e52de004 	push	{lr}		; (str lr, [sp, #-4]!)
    8b9c:	e24dd00c 	sub	sp, sp, #12, 0
    8ba0:	e58d0000 	str	r0, [sp]
    8ba4:	e3a03003 	mov	r3, #3, 0
    8ba8:	e59f200c 	ldr	r2, [pc, #12]	; 8bbc <int_vector+0x24>
    8bac:	e59f100c 	ldr	r1, [pc, #12]	; 8bc0 <int_vector+0x28>
    8bb0:	e59f000c 	ldr	r0, [pc, #12]	; 8bc4 <int_vector+0x2c>
    8bb4:	ebfffdbd 	bl	82b0 <printk>
    8bb8:	ebfffec5 	bl	86d4 <clean_reboot>
    8bbc:	00009324 	.word	0x00009324
    8bc0:	000092d4 	.word	0x000092d4
    8bc4:	000092f8 	.word	0x000092f8

00008bc8 <prefetch_abort_vector>:
    8bc8:	e52de004 	push	{lr}		; (str lr, [sp, #-4]!)
    8bcc:	e24dd00c 	sub	sp, sp, #12, 0
    8bd0:	e58d0000 	str	r0, [sp]
    8bd4:	e3a03003 	mov	r3, #3, 0
    8bd8:	e59f200c 	ldr	r2, [pc, #12]	; 8bec <prefetch_abort_vector+0x24>
    8bdc:	e59f100c 	ldr	r1, [pc, #12]	; 8bf0 <prefetch_abort_vector+0x28>
    8be0:	e59f000c 	ldr	r0, [pc, #12]	; 8bf4 <prefetch_abort_vector+0x2c>
    8be4:	ebfffdb1 	bl	82b0 <printk>
    8be8:	ebfffeb9 	bl	86d4 <clean_reboot>
    8bec:	00009388 	.word	0x00009388
    8bf0:	00009330 	.word	0x00009330
    8bf4:	00009358 	.word	0x00009358

00008bf8 <reset_vector>:
    8bf8:	e52de004 	push	{lr}		; (str lr, [sp, #-4]!)
    8bfc:	e24dd00c 	sub	sp, sp, #12, 0
    8c00:	e58d0000 	str	r0, [sp]
    8c04:	e3a03003 	mov	r3, #3, 0
    8c08:	e59f200c 	ldr	r2, [pc, #12]	; 8c1c <reset_vector+0x24>
    8c0c:	e59f100c 	ldr	r1, [pc, #12]	; 8c20 <reset_vector+0x28>
    8c10:	e59f000c 	ldr	r0, [pc, #12]	; 8c24 <reset_vector+0x2c>
    8c14:	ebfffda5 	bl	82b0 <printk>
    8c18:	ebfffead 	bl	86d4 <clean_reboot>
    8c1c:	000093f8 	.word	0x000093f8
    8c20:	000093a0 	.word	0x000093a0
    8c24:	000093c4 	.word	0x000093c4

00008c28 <syscall_vector>:
    8c28:	e52de004 	push	{lr}		; (str lr, [sp, #-4]!)
    8c2c:	e24dd00c 	sub	sp, sp, #12, 0
    8c30:	e58d0000 	str	r0, [sp]
    8c34:	e3a03003 	mov	r3, #3, 0
    8c38:	e59f200c 	ldr	r2, [pc, #12]	; 8c4c <syscall_vector+0x24>
    8c3c:	e59f100c 	ldr	r1, [pc, #12]	; 8c50 <syscall_vector+0x28>
    8c40:	e59f000c 	ldr	r0, [pc, #12]	; 8c54 <syscall_vector+0x2c>
    8c44:	ebfffd99 	bl	82b0 <printk>
    8c48:	ebfffea1 	bl	86d4 <clean_reboot>
    8c4c:	0000945c 	.word	0x0000945c
    8c50:	00009408 	.word	0x00009408
    8c54:	0000942c 	.word	0x0000942c

00008c58 <undefined_instruction_vector>:
    8c58:	e52de004 	push	{lr}		; (str lr, [sp, #-4]!)
    8c5c:	e24dd00c 	sub	sp, sp, #12, 0
    8c60:	e58d0000 	str	r0, [sp]
    8c64:	e3a03003 	mov	r3, #3, 0
    8c68:	e59f200c 	ldr	r2, [pc, #12]	; 8c7c <undefined_instruction_vector+0x24>
    8c6c:	e59f100c 	ldr	r1, [pc, #12]	; 8c80 <undefined_instruction_vector+0x28>
    8c70:	e59f000c 	ldr	r0, [pc, #12]	; 8c84 <undefined_instruction_vector+0x2c>
    8c74:	ebfffd8d 	bl	82b0 <printk>
    8c78:	ebfffe95 	bl	86d4 <clean_reboot>
    8c7c:	000094d8 	.word	0x000094d8
    8c80:	0000946c 	.word	0x0000946c
    8c84:	0000949c 	.word	0x0000949c

00008c88 <dev_barrier>:
    8c88:	ea000002 	b	8c98 <dsb>

00008c8c <dmb>:
    8c8c:	e3a00000 	mov	r0, #0, 0
    8c90:	ee070fba 	mcr	15, 0, r0, cr7, cr10, {5}
    8c94:	e12fff1e 	bx	lr

00008c98 <dsb>:
    8c98:	ee070f9a 	mcr	15, 0, r0, cr7, cr10, {4}
    8c9c:	e12fff1e 	bx	lr

00008ca0 <rpi_wait>:
    8ca0:	e12fff1e 	bx	lr

00008ca4 <gpio_set_txpin>:
    8ca4:	e92d4070 	push	{r4, r5, r6, lr}
    8ca8:	e1a04000 	mov	r4, r0
    8cac:	e3500035 	cmp	r0, #53, 0	; 0x35
    8cb0:	8a000010 	bhi	8cf8 <gpio_set_txpin+0x54>
    8cb4:	e59f104c 	ldr	r1, [pc, #76]	; 8d08 <gpio_set_txpin+0x64>
    8cb8:	e0813491 	umull	r3, r1, r1, r4
    8cbc:	e1a011a1 	lsr	r1, r1, #3
    8cc0:	e0811101 	add	r1, r1, r1, lsl #2
    8cc4:	e0441081 	sub	r1, r4, r1, lsl #1
    8cc8:	e0814081 	add	r4, r1, r1, lsl #1
    8ccc:	e3a00007 	mov	r0, #7, 0
    8cd0:	e1a05410 	lsl	r5, r0, r4
    8cd4:	e59f6030 	ldr	r6, [pc, #48]	; 8d0c <gpio_set_txpin+0x68>
    8cd8:	e1a00006 	mov	r0, r6
    8cdc:	ebfffcd2 	bl	802c <GET32>
    8ce0:	e1c00005 	bic	r0, r0, r5
    8ce4:	e3a01004 	mov	r1, #4, 0
    8ce8:	e1801411 	orr	r1, r0, r1, lsl r4
    8cec:	e1a00006 	mov	r0, r6
    8cf0:	ebfffccb 	bl	8024 <PUT32>
    8cf4:	e8bd8070 	pop	{r4, r5, r6, pc}
    8cf8:	e1a01000 	mov	r1, r0
    8cfc:	e59f000c 	ldr	r0, [pc, #12]	; 8d10 <gpio_set_txpin+0x6c>
    8d00:	eb000079 	bl	8eec <gpio_panic>
    8d04:	eaffffea 	b	8cb4 <gpio_set_txpin+0x10>
    8d08:	cccccccd 	.word	0xcccccccd
    8d0c:	20200004 	.word	0x20200004
    8d10:	000094f8 	.word	0x000094f8

00008d14 <gpio_set_on>:
    8d14:	e92d4010 	push	{r4, lr}
    8d18:	e1a04000 	mov	r4, r0
    8d1c:	e3500035 	cmp	r0, #53, 0	; 0x35
    8d20:	8a000007 	bhi	8d44 <gpio_set_on+0x30>
    8d24:	e204301f 	and	r3, r4, #31, 0
    8d28:	e3a01001 	mov	r1, #1, 0
    8d2c:	e1a01311 	lsl	r1, r1, r3
    8d30:	e354001f 	cmp	r4, #31, 0
    8d34:	8a000006 	bhi	8d54 <gpio_set_on+0x40>
    8d38:	e59f0020 	ldr	r0, [pc, #32]	; 8d60 <gpio_set_on+0x4c>
    8d3c:	ebfffcb8 	bl	8024 <PUT32>
    8d40:	e8bd8010 	pop	{r4, pc}
    8d44:	e1a01000 	mov	r1, r0
    8d48:	e59f0014 	ldr	r0, [pc, #20]	; 8d64 <gpio_set_on+0x50>
    8d4c:	eb000066 	bl	8eec <gpio_panic>
    8d50:	eafffff3 	b	8d24 <gpio_set_on+0x10>
    8d54:	e59f000c 	ldr	r0, [pc, #12]	; 8d68 <gpio_set_on+0x54>
    8d58:	ebfffcb1 	bl	8024 <PUT32>
    8d5c:	e8bd8010 	pop	{r4, pc}
    8d60:	2020001c 	.word	0x2020001c
    8d64:	000094f8 	.word	0x000094f8
    8d68:	20200020 	.word	0x20200020

00008d6c <gpio_set_off>:
    8d6c:	e92d4010 	push	{r4, lr}
    8d70:	e1a04000 	mov	r4, r0
    8d74:	e3500035 	cmp	r0, #53, 0	; 0x35
    8d78:	8a000007 	bhi	8d9c <gpio_set_off+0x30>
    8d7c:	e204301f 	and	r3, r4, #31, 0
    8d80:	e3a01001 	mov	r1, #1, 0
    8d84:	e1a01311 	lsl	r1, r1, r3
    8d88:	e354001f 	cmp	r4, #31, 0
    8d8c:	8a000006 	bhi	8dac <gpio_set_off+0x40>
    8d90:	e59f0020 	ldr	r0, [pc, #32]	; 8db8 <gpio_set_off+0x4c>
    8d94:	ebfffca2 	bl	8024 <PUT32>
    8d98:	e8bd8010 	pop	{r4, pc}
    8d9c:	e1a01000 	mov	r1, r0
    8da0:	e59f0014 	ldr	r0, [pc, #20]	; 8dbc <gpio_set_off+0x50>
    8da4:	eb000050 	bl	8eec <gpio_panic>
    8da8:	eafffff3 	b	8d7c <gpio_set_off+0x10>
    8dac:	e59f000c 	ldr	r0, [pc, #12]	; 8dc0 <gpio_set_off+0x54>
    8db0:	ebfffc9b 	bl	8024 <PUT32>
    8db4:	e8bd8010 	pop	{r4, pc}
    8db8:	20200028 	.word	0x20200028
    8dbc:	000094f8 	.word	0x000094f8
    8dc0:	2020002c 	.word	0x2020002c

00008dc4 <gpio_write>:
    8dc4:	e92d4010 	push	{r4, lr}
    8dc8:	e3510000 	cmp	r1, #0, 0
    8dcc:	0a000001 	beq	8dd8 <gpio_write+0x14>
    8dd0:	ebffffcf 	bl	8d14 <gpio_set_on>
    8dd4:	e8bd8010 	pop	{r4, pc}
    8dd8:	ebffffe3 	bl	8d6c <gpio_set_off>
    8ddc:	e8bd8010 	pop	{r4, pc}

00008de0 <gpio_read>:
    8de0:	e92d4010 	push	{r4, lr}
    8de4:	e1a04000 	mov	r4, r0
    8de8:	e3500035 	cmp	r0, #53, 0	; 0x35
    8dec:	8a000007 	bhi	8e10 <gpio_read+0x30>
    8df0:	e354001f 	cmp	r4, #31, 0
    8df4:	8a000009 	bhi	8e20 <gpio_read+0x40>
    8df8:	e59f002c 	ldr	r0, [pc, #44]	; 8e2c <gpio_read+0x4c>
    8dfc:	ebfffc8a 	bl	802c <GET32>
    8e00:	e204401f 	and	r4, r4, #31, 0
    8e04:	e1a00430 	lsr	r0, r0, r4
    8e08:	e2000001 	and	r0, r0, #1, 0
    8e0c:	e8bd8010 	pop	{r4, pc}
    8e10:	e1a01000 	mov	r1, r0
    8e14:	e59f0014 	ldr	r0, [pc, #20]	; 8e30 <gpio_read+0x50>
    8e18:	eb000033 	bl	8eec <gpio_panic>
    8e1c:	eafffff3 	b	8df0 <gpio_read+0x10>
    8e20:	e59f000c 	ldr	r0, [pc, #12]	; 8e34 <gpio_read+0x54>
    8e24:	ebfffc80 	bl	802c <GET32>
    8e28:	eafffff4 	b	8e00 <gpio_read+0x20>
    8e2c:	20200034 	.word	0x20200034
    8e30:	000094f8 	.word	0x000094f8
    8e34:	20200038 	.word	0x20200038

00008e38 <gpio_set_function>:
    8e38:	e92d41f0 	push	{r4, r5, r6, r7, r8, lr}
    8e3c:	e1a04000 	mov	r4, r0
    8e40:	e1a06001 	mov	r6, r1
    8e44:	e3500035 	cmp	r0, #53, 0	; 0x35
    8e48:	8a000014 	bhi	8ea0 <gpio_set_function+0x68>
    8e4c:	e3d63007 	bics	r3, r6, #7, 0
    8e50:	1a000016 	bne	8eb0 <gpio_set_function+0x78>
    8e54:	e59f3064 	ldr	r3, [pc, #100]	; 8ec0 <gpio_set_function+0x88>
    8e58:	e0832493 	umull	r2, r3, r3, r4
    8e5c:	e1a031a3 	lsr	r3, r3, #3
    8e60:	e1a02003 	mov	r2, r3
    8e64:	e0833103 	add	r3, r3, r3, lsl #2
    8e68:	e0443083 	sub	r3, r4, r3, lsl #1
    8e6c:	e0834083 	add	r4, r3, r3, lsl #1
    8e70:	e3a01007 	mov	r1, #7, 0
    8e74:	e1a07411 	lsl	r7, r1, r4
    8e78:	e2820302 	add	r0, r2, #134217728	; 0x8000000
    8e7c:	e2800702 	add	r0, r0, #524288	; 0x80000
    8e80:	e1a05100 	lsl	r5, r0, #2
    8e84:	e1a00005 	mov	r0, r5
    8e88:	ebfffc67 	bl	802c <GET32>
    8e8c:	e1c01007 	bic	r1, r0, r7
    8e90:	e1811416 	orr	r1, r1, r6, lsl r4
    8e94:	e1a00005 	mov	r0, r5
    8e98:	ebfffc61 	bl	8024 <PUT32>
    8e9c:	e8bd81f0 	pop	{r4, r5, r6, r7, r8, pc}
    8ea0:	e1a01000 	mov	r1, r0
    8ea4:	e59f0018 	ldr	r0, [pc, #24]	; 8ec4 <gpio_set_function+0x8c>
    8ea8:	eb00000f 	bl	8eec <gpio_panic>
    8eac:	eaffffe6 	b	8e4c <gpio_set_function+0x14>
    8eb0:	e1a01006 	mov	r1, r6
    8eb4:	e59f000c 	ldr	r0, [pc, #12]	; 8ec8 <gpio_set_function+0x90>
    8eb8:	eb00000b 	bl	8eec <gpio_panic>
    8ebc:	eaffffe4 	b	8e54 <gpio_set_function+0x1c>
    8ec0:	cccccccd 	.word	0xcccccccd
    8ec4:	000094f8 	.word	0x000094f8
    8ec8:	00009508 	.word	0x00009508

00008ecc <gpio_set_output>:
    8ecc:	e92d4010 	push	{r4, lr}
    8ed0:	e3a01001 	mov	r1, #1, 0
    8ed4:	ebffffd7 	bl	8e38 <gpio_set_function>
    8ed8:	e8bd8010 	pop	{r4, pc}

00008edc <gpio_set_input>:
    8edc:	e92d4010 	push	{r4, lr}
    8ee0:	e3a01000 	mov	r1, #0, 0
    8ee4:	ebffffd3 	bl	8e38 <gpio_set_function>
    8ee8:	e8bd8010 	pop	{r4, pc}

00008eec <gpio_panic>:
    8eec:	e92d000f 	push	{r0, r1, r2, r3}
    8ef0:	e92d4010 	push	{r4, lr}
    8ef4:	e3a03005 	mov	r3, #5, 0
    8ef8:	e59f200c 	ldr	r2, [pc, #12]	; 8f0c <gpio_panic+0x20>
    8efc:	e59f100c 	ldr	r1, [pc, #12]	; 8f10 <gpio_panic+0x24>
    8f00:	e59f000c 	ldr	r0, [pc, #12]	; 8f14 <gpio_panic+0x28>
    8f04:	ebfffce9 	bl	82b0 <printk>
    8f08:	ebfffdf1 	bl	86d4 <clean_reboot>
    8f0c:	0000955c 	.word	0x0000955c
    8f10:	0000951c 	.word	0x0000951c
    8f14:	00009538 	.word	0x00009538
