
objs/l1/l2/l3//tests/tests-lcp/lcp_fullpath_test.elf:     file format elf32-littlearm


Disassembly of section .text:

00008000 <__code_start__>:
    8000:	e3a00013 	mov	r0, #19, 0
    8004:	e3800080 	orr	r0, r0, #128, 0	; 0x80
    8008:	e129f000 	msr	CPSR_fc, r0
    800c:	e3a01000 	mov	r1, #0, 0
    8010:	ee071f95 	mcr	15, 0, r1, cr7, cr5, {4}
    8014:	e3a0d302 	mov	sp, #134217728	; 0x8000000
    8018:	e3a0b000 	mov	fp, #0, 0
    801c:	eb000561 	bl	95a8 <_cstart>
    8020:	eb000574 	bl	95f8 <rpi_reboot>

00008024 <PUT32>:
    8024:	e5801000 	str	r1, [r0]
    8028:	e12fff1e 	bx	lr

0000802c <GET32>:
    802c:	e5900000 	ldr	r0, [r0]
    8030:	e12fff1e 	bx	lr

00008034 <BRANCHTO>:
    8034:	e12fff10 	bx	r0

00008038 <ipcp_stub>:
    8038:	e3a00000 	mov	r0, #0, 0
    803c:	e12fff1e 	bx	lr

00008040 <ip_stub>:
    8040:	e3a00000 	mov	r0, #0, 0
    8044:	e12fff1e 	bx	lr

00008048 <notmain>:
    8048:	e52de004 	push	{lr}		; (str lr, [sp, #-4]!)
    804c:	e24dde65 	sub	sp, sp, #1616	; 0x650
    8050:	e24dd00c 	sub	sp, sp, #12, 0
    8054:	eb0003af 	bl	8f18 <uart_init>
    8058:	e59f2080 	ldr	r2, [pc, #128]	; 80e0 <notmain+0x98>
    805c:	e1a0300d 	mov	r3, sp
    8060:	e8920007 	ldm	r2, {r0, r1, r2}
    8064:	e8830007 	stm	r3, {r0, r1, r2}
    8068:	e1a00003 	mov	r0, r3
    806c:	eb00031a 	bl	8cdc <lcp_init>
    8070:	e59f006c 	ldr	r0, [pc, #108]	; 80e4 <notmain+0x9c>
    8074:	eb00042d 	bl	9130 <printk>
    8078:	e3a02d19 	mov	r2, #1600	; 0x640
    807c:	e28d1018 	add	r1, sp, #24, 0
    8080:	e241000c 	sub	r0, r1, #12, 0
    8084:	eb0001ad 	bl	8740 <ppp_recv>
    8088:	e2501000 	subs	r1, r0, #0, 0
    808c:	ba00000d 	blt	80c8 <notmain+0x80>
    8090:	e59f0050 	ldr	r0, [pc, #80]	; 80e8 <notmain+0xa0>
    8094:	eb000425 	bl	9130 <printk>
    8098:	e28d000c 	add	r0, sp, #12, 0
    809c:	eb0001ea 	bl	884c <ppp_print_packet>
    80a0:	e59f3044 	ldr	r3, [pc, #68]	; 80ec <notmain+0xa4>
    80a4:	e59f2044 	ldr	r2, [pc, #68]	; 80f0 <notmain+0xa8>
    80a8:	e59f1044 	ldr	r1, [pc, #68]	; 80f4 <notmain+0xac>
    80ac:	e28d000c 	add	r0, sp, #12, 0
    80b0:	eb0001b7 	bl	8794 <ppp_dispatch>
    80b4:	e2501000 	subs	r1, r0, #0, 0
    80b8:	1a000005 	bne	80d4 <notmain+0x8c>
    80bc:	e59f0034 	ldr	r0, [pc, #52]	; 80f8 <notmain+0xb0>
    80c0:	eb00041a 	bl	9130 <printk>
    80c4:	eb00052c 	bl	957c <clean_reboot>
    80c8:	e59f002c 	ldr	r0, [pc, #44]	; 80fc <notmain+0xb4>
    80cc:	eb000417 	bl	9130 <printk>
    80d0:	eb000529 	bl	957c <clean_reboot>
    80d4:	e59f0024 	ldr	r0, [pc, #36]	; 8100 <notmain+0xb8>
    80d8:	eb000414 	bl	9130 <printk>
    80dc:	eafffff8 	b	80c4 <notmain+0x7c>
    80e0:	00009a10 	.word	0x00009a10
    80e4:	00009968 	.word	0x00009968
    80e8:	000099b4 	.word	0x000099b4
    80ec:	00008040 	.word	0x00008040
    80f0:	00008038 	.word	0x00008038
    80f4:	00008dd0 	.word	0x00008dd0
    80f8:	000099cc 	.word	0x000099cc
    80fc:	0000999c 	.word	0x0000999c
    8100:	000099f4 	.word	0x000099f4

00008104 <hdlc_crc16>:
    8104:	e1a0c001 	mov	ip, r1
    8108:	e16f1f11 	clz	r1, r1
    810c:	e1a012a1 	lsr	r1, r1, #5
    8110:	e3500000 	cmp	r0, #0, 0
    8114:	03a01001 	moveq	r1, #1, 0
    8118:	e3510000 	cmp	r1, #0, 0
    811c:	1a000011 	bne	8168 <hdlc_crc16+0x64>
    8120:	e52de004 	push	{lr}		; (str lr, [sp, #-4]!)
    8124:	e1a0e000 	mov	lr, r0
    8128:	e3a02000 	mov	r2, #0, 0
    812c:	e59f003c 	ldr	r0, [pc, #60]	; 8170 <hdlc_crc16+0x6c>
    8130:	ea000007 	b	8154 <hdlc_crc16+0x50>
    8134:	e6ef3070 	uxtb	r3, r0
    8138:	e7de1002 	ldrb	r1, [lr, r2]
    813c:	e0233001 	eor	r3, r3, r1
    8140:	e1a03083 	lsl	r3, r3, #1
    8144:	e59f1028 	ldr	r1, [pc, #40]	; 8174 <hdlc_crc16+0x70>
    8148:	e19130b3 	ldrh	r3, [r1, r3]
    814c:	e0230420 	eor	r0, r3, r0, lsr #8
    8150:	e2822001 	add	r2, r2, #1, 0
    8154:	e152000c 	cmp	r2, ip
    8158:	3afffff5 	bcc	8134 <hdlc_crc16+0x30>
    815c:	e1e00000 	mvn	r0, r0
    8160:	e6ff0070 	uxth	r0, r0
    8164:	e49df004 	pop	{pc}		; (ldr pc, [sp], #4)
    8168:	e59f0000 	ldr	r0, [pc]	; 8170 <hdlc_crc16+0x6c>
    816c:	e12fff1e 	bx	lr
    8170:	0000ffff 	.word	0x0000ffff
    8174:	00009a1c 	.word	0x00009a1c

00008178 <hdlc_encode>:
    8178:	e92d41f0 	push	{r4, r5, r6, r7, r8, lr}
    817c:	e1a04002 	mov	r4, r2
    8180:	e16f2f12 	clz	r2, r2
    8184:	e1a022a2 	lsr	r2, r2, #5
    8188:	e3500000 	cmp	r0, #0, 0
    818c:	03a02001 	moveq	r2, #1, 0
    8190:	e3520000 	cmp	r2, #0, 0
    8194:	1a000052 	bne	82e4 <hdlc_encode+0x16c>
    8198:	e1a05001 	mov	r5, r1
    819c:	e1a06003 	mov	r6, r3
    81a0:	e1a07000 	mov	r7, r0
    81a4:	e3510000 	cmp	r1, #0, 0
    81a8:	0a00004f 	beq	82ec <hdlc_encode+0x174>
    81ac:	e2813003 	add	r3, r1, #3, 0
    81b0:	e1560083 	cmp	r6, r3, lsl #1
    81b4:	3a00004e 	bcc	82f4 <hdlc_encode+0x17c>
    81b8:	ebffffd1 	bl	8104 <hdlc_crc16>
    81bc:	e3a0307e 	mov	r3, #126, 0	; 0x7e
    81c0:	e5c43000 	strb	r3, [r4]
    81c4:	e3a0c000 	mov	ip, #0, 0
    81c8:	e3a03001 	mov	r3, #1, 0
    81cc:	ea000005 	b	81e8 <hdlc_encode+0x70>
    81d0:	e2831001 	add	r1, r3, #1, 0
    81d4:	e1510006 	cmp	r1, r6
    81d8:	8a000049 	bhi	8304 <hdlc_encode+0x18c>
    81dc:	e7c42003 	strb	r2, [r4, r3]
    81e0:	e1a03001 	mov	r3, r1
    81e4:	e28cc001 	add	ip, ip, #1, 0
    81e8:	e15c0005 	cmp	ip, r5
    81ec:	2a00000f 	bcs	8230 <hdlc_encode+0xb8>
    81f0:	e7d7200c 	ldrb	r2, [r7, ip]
    81f4:	e242e07d 	sub	lr, r2, #125, 0	; 0x7d
    81f8:	e6efe07e 	uxtb	lr, lr
    81fc:	e352001f 	cmp	r2, #31, 0
    8200:	835e0001 	cmphi	lr, #1, 0
    8204:	8afffff1 	bhi	81d0 <hdlc_encode+0x58>
    8208:	e2831002 	add	r1, r3, #2, 0
    820c:	e1510006 	cmp	r1, r6
    8210:	8a000039 	bhi	82fc <hdlc_encode+0x184>
    8214:	e283e001 	add	lr, r3, #1, 0
    8218:	e3a0807d 	mov	r8, #125, 0	; 0x7d
    821c:	e7c48003 	strb	r8, [r4, r3]
    8220:	e2222020 	eor	r2, r2, #32, 0
    8224:	e7c4200e 	strb	r2, [r4, lr]
    8228:	e1a03001 	mov	r3, r1
    822c:	eaffffec 	b	81e4 <hdlc_encode+0x6c>
    8230:	e6ef2070 	uxtb	r2, r0
    8234:	e1a00420 	lsr	r0, r0, #8
    8238:	e6ef0070 	uxtb	r0, r0
    823c:	e242107d 	sub	r1, r2, #125, 0	; 0x7d
    8240:	e6ef1071 	uxtb	r1, r1
    8244:	e352001f 	cmp	r2, #31, 0
    8248:	83510001 	cmphi	r1, #1, 0
    824c:	8a00001a 	bhi	82bc <hdlc_encode+0x144>
    8250:	e2831002 	add	r1, r3, #2, 0
    8254:	e1510006 	cmp	r1, r6
    8258:	8a00002b 	bhi	830c <hdlc_encode+0x194>
    825c:	e283c001 	add	ip, r3, #1, 0
    8260:	e3a0e07d 	mov	lr, #125, 0	; 0x7d
    8264:	e7c4e003 	strb	lr, [r4, r3]
    8268:	e2222020 	eor	r2, r2, #32, 0
    826c:	e7c4200c 	strb	r2, [r4, ip]
    8270:	e240307d 	sub	r3, r0, #125, 0	; 0x7d
    8274:	e6ef3073 	uxtb	r3, r3
    8278:	e350001f 	cmp	r0, #31, 0
    827c:	83530001 	cmphi	r3, #1, 0
    8280:	8a000012 	bhi	82d0 <hdlc_encode+0x158>
    8284:	e2813002 	add	r3, r1, #2, 0
    8288:	e1530006 	cmp	r3, r6
    828c:	8a000022 	bhi	831c <hdlc_encode+0x1a4>
    8290:	e2812001 	add	r2, r1, #1, 0
    8294:	e3a0c07d 	mov	ip, #125, 0	; 0x7d
    8298:	e7c4c001 	strb	ip, [r4, r1]
    829c:	e2200020 	eor	r0, r0, #32, 0
    82a0:	e7c40002 	strb	r0, [r4, r2]
    82a4:	e2830001 	add	r0, r3, #1, 0
    82a8:	e1500006 	cmp	r0, r6
    82ac:	8a00001e 	bhi	832c <hdlc_encode+0x1b4>
    82b0:	e3a0207e 	mov	r2, #126, 0	; 0x7e
    82b4:	e7c42003 	strb	r2, [r4, r3]
    82b8:	e8bd81f0 	pop	{r4, r5, r6, r7, r8, pc}
    82bc:	e2831001 	add	r1, r3, #1, 0
    82c0:	e1510006 	cmp	r1, r6
    82c4:	8a000012 	bhi	8314 <hdlc_encode+0x19c>
    82c8:	e7c42003 	strb	r2, [r4, r3]
    82cc:	eaffffe7 	b	8270 <hdlc_encode+0xf8>
    82d0:	e2813001 	add	r3, r1, #1, 0
    82d4:	e1530006 	cmp	r3, r6
    82d8:	8a000011 	bhi	8324 <hdlc_encode+0x1ac>
    82dc:	e7c40001 	strb	r0, [r4, r1]
    82e0:	eaffffef 	b	82a4 <hdlc_encode+0x12c>
    82e4:	e3e00000 	mvn	r0, #0, 0
    82e8:	e8bd81f0 	pop	{r4, r5, r6, r7, r8, pc}
    82ec:	e3e00000 	mvn	r0, #0, 0
    82f0:	e8bd81f0 	pop	{r4, r5, r6, r7, r8, pc}
    82f4:	e3e00002 	mvn	r0, #2, 0
    82f8:	e8bd81f0 	pop	{r4, r5, r6, r7, r8, pc}
    82fc:	e3e00002 	mvn	r0, #2, 0
    8300:	e8bd81f0 	pop	{r4, r5, r6, r7, r8, pc}
    8304:	e3e00002 	mvn	r0, #2, 0
    8308:	e8bd81f0 	pop	{r4, r5, r6, r7, r8, pc}
    830c:	e3e00002 	mvn	r0, #2, 0
    8310:	e8bd81f0 	pop	{r4, r5, r6, r7, r8, pc}
    8314:	e3e00002 	mvn	r0, #2, 0
    8318:	e8bd81f0 	pop	{r4, r5, r6, r7, r8, pc}
    831c:	e3e00002 	mvn	r0, #2, 0
    8320:	e8bd81f0 	pop	{r4, r5, r6, r7, r8, pc}
    8324:	e3e00002 	mvn	r0, #2, 0
    8328:	e8bd81f0 	pop	{r4, r5, r6, r7, r8, pc}
    832c:	e3e00002 	mvn	r0, #2, 0
    8330:	e8bd81f0 	pop	{r4, r5, r6, r7, r8, pc}

00008334 <hdlc_decode>:
    8334:	e92d4070 	push	{r4, r5, r6, lr}
    8338:	e24ddb02 	sub	sp, sp, #2048	; 0x800
    833c:	e1a06002 	mov	r6, r2
    8340:	e16f2f12 	clz	r2, r2
    8344:	e1a022a2 	lsr	r2, r2, #5
    8348:	e3500000 	cmp	r0, #0, 0
    834c:	03a02001 	moveq	r2, #1, 0
    8350:	e3520000 	cmp	r2, #0, 0
    8354:	1a00003d 	bne	8450 <hdlc_decode+0x11c>
    8358:	e1a04000 	mov	r4, r0
    835c:	e3510001 	cmp	r1, #1, 0
    8360:	9a00003c 	bls	8458 <hdlc_decode+0x124>
    8364:	e1a0c002 	mov	ip, r2
    8368:	ea000011 	b	83b4 <hdlc_decode+0x80>
    836c:	e282e001 	add	lr, r2, #1, 0
    8370:	e15e0001 	cmp	lr, r1
    8374:	2a000039 	bcs	8460 <hdlc_decode+0x12c>
    8378:	e35c0b02 	cmp	ip, #2048	; 0x800
    837c:	2a000039 	bcs	8468 <hdlc_decode+0x134>
    8380:	e7d4e00e 	ldrb	lr, [r4, lr]
    8384:	e28d0b02 	add	r0, sp, #2048	; 0x800
    8388:	e080000c 	add	r0, r0, ip
    838c:	e22ee020 	eor	lr, lr, #32, 0
    8390:	e540e800 	strb	lr, [r0, #-2048]	; 0xfffff800
    8394:	e2822002 	add	r2, r2, #2, 0
    8398:	e28cc001 	add	ip, ip, #1, 0
    839c:	ea000004 	b	83b4 <hdlc_decode+0x80>
    83a0:	e2822001 	add	r2, r2, #1, 0
    83a4:	e28d0b02 	add	r0, sp, #2048	; 0x800
    83a8:	e080500c 	add	r5, r0, ip
    83ac:	e545e800 	strb	lr, [r5, #-2048]	; 0xfffff800
    83b0:	e28cc001 	add	ip, ip, #1, 0
    83b4:	e1520001 	cmp	r2, r1
    83b8:	2a000006 	bcs	83d8 <hdlc_decode+0xa4>
    83bc:	e7d4e002 	ldrb	lr, [r4, r2]
    83c0:	e35e007d 	cmp	lr, #125, 0	; 0x7d
    83c4:	0affffe8 	beq	836c <hdlc_decode+0x38>
    83c8:	e35c0b02 	cmp	ip, #2048	; 0x800
    83cc:	3afffff3 	bcc	83a0 <hdlc_decode+0x6c>
    83d0:	e3e00002 	mvn	r0, #2, 0
    83d4:	ea00001b 	b	8448 <hdlc_decode+0x114>
    83d8:	e35c0001 	cmp	ip, #1, 0
    83dc:	9a000023 	bls	8470 <hdlc_decode+0x13c>
    83e0:	e24c4002 	sub	r4, ip, #2, 0
    83e4:	e28d2b02 	add	r2, sp, #2048	; 0x800
    83e8:	e0822004 	add	r2, r2, r4
    83ec:	e5525800 	ldrb	r5, [r2, #-2048]	; 0xfffff800
    83f0:	e24cc001 	sub	ip, ip, #1, 0
    83f4:	e28d2b02 	add	r2, sp, #2048	; 0x800
    83f8:	e082c00c 	add	ip, r2, ip
    83fc:	e55c2800 	ldrb	r2, [ip, #-2048]	; 0xfffff800
    8400:	e1855402 	orr	r5, r5, r2, lsl #8
    8404:	e1540003 	cmp	r4, r3
    8408:	8a00001a 	bhi	8478 <hdlc_decode+0x144>
    840c:	e3a03000 	mov	r3, #0, 0
    8410:	e1540003 	cmp	r4, r3
    8414:	9a000005 	bls	8430 <hdlc_decode+0xfc>
    8418:	e28d2b02 	add	r2, sp, #2048	; 0x800
    841c:	e0822003 	add	r2, r2, r3
    8420:	e5522800 	ldrb	r2, [r2, #-2048]	; 0xfffff800
    8424:	e7c62003 	strb	r2, [r6, r3]
    8428:	e2833001 	add	r3, r3, #1, 0
    842c:	eafffff7 	b	8410 <hdlc_decode+0xdc>
    8430:	e1a01004 	mov	r1, r4
    8434:	e1a00006 	mov	r0, r6
    8438:	ebffff31 	bl	8104 <hdlc_crc16>
    843c:	e1550000 	cmp	r5, r0
    8440:	1a00000e 	bne	8480 <hdlc_decode+0x14c>
    8444:	e1a00004 	mov	r0, r4
    8448:	e28ddb02 	add	sp, sp, #2048	; 0x800
    844c:	e8bd8070 	pop	{r4, r5, r6, pc}
    8450:	e3e00000 	mvn	r0, #0, 0
    8454:	eafffffb 	b	8448 <hdlc_decode+0x114>
    8458:	e3e00000 	mvn	r0, #0, 0
    845c:	eafffff9 	b	8448 <hdlc_decode+0x114>
    8460:	e3e00003 	mvn	r0, #3, 0
    8464:	eafffff7 	b	8448 <hdlc_decode+0x114>
    8468:	e3e00002 	mvn	r0, #2, 0
    846c:	eafffff5 	b	8448 <hdlc_decode+0x114>
    8470:	e3e00000 	mvn	r0, #0, 0
    8474:	eafffff3 	b	8448 <hdlc_decode+0x114>
    8478:	e3e00002 	mvn	r0, #2, 0
    847c:	eafffff1 	b	8448 <hdlc_decode+0x114>
    8480:	e3e00001 	mvn	r0, #1, 0
    8484:	eaffffef 	b	8448 <hdlc_decode+0x114>

00008488 <hdlc_send>:
    8488:	e92d4030 	push	{r4, r5, lr}
    848c:	e24ddb02 	sub	sp, sp, #2048	; 0x800
    8490:	e24dd004 	sub	sp, sp, #4, 0
    8494:	e3a03b02 	mov	r3, #2048	; 0x800
    8498:	e1a0200d 	mov	r2, sp
    849c:	ebffff35 	bl	8178 <hdlc_encode>
    84a0:	e2505000 	subs	r5, r0, #0, 0
    84a4:	ba00000c 	blt	84dc <hdlc_send+0x54>
    84a8:	e3a04000 	mov	r4, #0, 0
    84ac:	e1550004 	cmp	r5, r4
    84b0:	9a000007 	bls	84d4 <hdlc_send+0x4c>
    84b4:	e28d3b02 	add	r3, sp, #2048	; 0x800
    84b8:	e0833004 	add	r3, r3, r4
    84bc:	e5530800 	ldrb	r0, [r3, #-2048]	; 0xfffff800
    84c0:	eb0002ce 	bl	9000 <uart_put8>
    84c4:	e3500000 	cmp	r0, #0, 0
    84c8:	ba000007 	blt	84ec <hdlc_send+0x64>
    84cc:	e2844001 	add	r4, r4, #1, 0
    84d0:	eafffff5 	b	84ac <hdlc_send+0x24>
    84d4:	eb0002fe 	bl	90d4 <uart_flush_tx>
    84d8:	e3a05000 	mov	r5, #0, 0
    84dc:	e1a00005 	mov	r0, r5
    84e0:	e28ddb02 	add	sp, sp, #2048	; 0x800
    84e4:	e28dd004 	add	sp, sp, #4, 0
    84e8:	e8bd8030 	pop	{r4, r5, pc}
    84ec:	e3e05000 	mvn	r5, #0, 0
    84f0:	eafffff9 	b	84dc <hdlc_send+0x54>

000084f4 <hdlc_recv>:
    84f4:	e92d40f0 	push	{r4, r5, r6, r7, lr}
    84f8:	e24ddb02 	sub	sp, sp, #2048	; 0x800
    84fc:	e24dd004 	sub	sp, sp, #4, 0
    8500:	e1a06000 	mov	r6, r0
    8504:	e1a07001 	mov	r7, r1
    8508:	e3a04000 	mov	r4, #0, 0
    850c:	e1a05004 	mov	r5, r4
    8510:	e3550b02 	cmp	r5, #2048	; 0x800
    8514:	2a000007 	bcs	8538 <hdlc_recv+0x44>
    8518:	eb0002ce 	bl	9058 <uart_get8>
    851c:	e2503000 	subs	r3, r0, #0, 0
    8520:	ba00001a 	blt	8590 <hdlc_recv+0x9c>
    8524:	e6ef3073 	uxtb	r3, r3
    8528:	e353007e 	cmp	r3, #126, 0	; 0x7e
    852c:	1a000011 	bne	8578 <hdlc_recv+0x84>
    8530:	e3540000 	cmp	r4, #0, 0
    8534:	0a00000c 	beq	856c <hdlc_recv+0x78>
    8538:	e2244001 	eor	r4, r4, #1, 0
    853c:	e3550000 	cmp	r5, #0, 0
    8540:	03844001 	orreq	r4, r4, #1, 0
    8544:	e31400ff 	tst	r4, #255, 0	; 0xff
    8548:	1a000012 	bne	8598 <hdlc_recv+0xa4>
    854c:	e1a03007 	mov	r3, r7
    8550:	e1a02006 	mov	r2, r6
    8554:	e1a01005 	mov	r1, r5
    8558:	e1a0000d 	mov	r0, sp
    855c:	ebffff74 	bl	8334 <hdlc_decode>
    8560:	e28ddb02 	add	sp, sp, #2048	; 0x800
    8564:	e28dd004 	add	sp, sp, #4, 0
    8568:	e8bd80f0 	pop	{r4, r5, r6, r7, pc}
    856c:	e3a04001 	mov	r4, #1, 0
    8570:	e3a05000 	mov	r5, #0, 0
    8574:	eaffffe7 	b	8518 <hdlc_recv+0x24>
    8578:	e3540000 	cmp	r4, #0, 0
    857c:	128d2b02 	addne	r2, sp, #2048	; 0x800
    8580:	10822005 	addne	r2, r2, r5
    8584:	15423800 	strbne	r3, [r2, #-2048]	; 0xfffff800
    8588:	12855001 	addne	r5, r5, #1, 0
    858c:	eaffffdf 	b	8510 <hdlc_recv+0x1c>
    8590:	e3e00000 	mvn	r0, #0, 0
    8594:	eafffff1 	b	8560 <hdlc_recv+0x6c>
    8598:	e3e00003 	mvn	r0, #3, 0
    859c:	eaffffef 	b	8560 <hdlc_recv+0x6c>

000085a0 <ppp_get_be16>:
    85a0:	e5d02000 	ldrb	r2, [r0]
    85a4:	e5d00001 	ldrb	r0, [r0, #1]
    85a8:	e1800402 	orr	r0, r0, r2, lsl #8
    85ac:	e12fff1e 	bx	lr

000085b0 <ppp_put_be16>:
    85b0:	e1a03421 	lsr	r3, r1, #8
    85b4:	e5c03000 	strb	r3, [r0]
    85b8:	e5c01001 	strb	r1, [r0, #1]
    85bc:	e12fff1e 	bx	lr

000085c0 <ppp_parse>:
    85c0:	e92d41f0 	push	{r4, r5, r6, r7, r8, lr}
    85c4:	e1a06002 	mov	r6, r2
    85c8:	e16f2f12 	clz	r2, r2
    85cc:	e1a022a2 	lsr	r2, r2, #5
    85d0:	e3500000 	cmp	r0, #0, 0
    85d4:	03a02001 	moveq	r2, #1, 0
    85d8:	e3520000 	cmp	r2, #0, 0
    85dc:	1a000014 	bne	8634 <ppp_parse+0x74>
    85e0:	e1a04001 	mov	r4, r1
    85e4:	e1a05000 	mov	r5, r0
    85e8:	e3510003 	cmp	r1, #3, 0
    85ec:	9a000012 	bls	863c <ppp_parse+0x7c>
    85f0:	e5d07000 	ldrb	r7, [r0]
    85f4:	e5c67000 	strb	r7, [r6]
    85f8:	e5d08001 	ldrb	r8, [r0, #1]
    85fc:	e5c68001 	strb	r8, [r6, #1]
    8600:	e2800002 	add	r0, r0, #2, 0
    8604:	ebffffe5 	bl	85a0 <ppp_get_be16>
    8608:	e1c600b2 	strh	r0, [r6, #2]
    860c:	e2855004 	add	r5, r5, #4, 0
    8610:	e5865004 	str	r5, [r6, #4]
    8614:	e2444004 	sub	r4, r4, #4, 0
    8618:	e5864008 	str	r4, [r6, #8]
    861c:	e35700ff 	cmp	r7, #255, 0	; 0xff
    8620:	1a000007 	bne	8644 <ppp_parse+0x84>
    8624:	e3580003 	cmp	r8, #3, 0
    8628:	1a000007 	bne	864c <ppp_parse+0x8c>
    862c:	e3a00000 	mov	r0, #0, 0
    8630:	e8bd81f0 	pop	{r4, r5, r6, r7, r8, pc}
    8634:	e3e00000 	mvn	r0, #0, 0
    8638:	e8bd81f0 	pop	{r4, r5, r6, r7, r8, pc}
    863c:	e3e00002 	mvn	r0, #2, 0
    8640:	e8bd81f0 	pop	{r4, r5, r6, r7, r8, pc}
    8644:	e3e00002 	mvn	r0, #2, 0
    8648:	e8bd81f0 	pop	{r4, r5, r6, r7, r8, pc}
    864c:	e3e00002 	mvn	r0, #2, 0
    8650:	e8bd81f0 	pop	{r4, r5, r6, r7, r8, pc}

00008654 <ppp_build>:
    8654:	e92d41f0 	push	{r4, r5, r6, r7, r8, lr}
    8658:	e2535000 	subs	r5, r3, #0, 0
    865c:	0a00001c 	beq	86d4 <ppp_build+0x80>
    8660:	e1a07001 	mov	r7, r1
    8664:	e1a06002 	mov	r6, r2
    8668:	e16f3f11 	clz	r3, r1
    866c:	e1a032a3 	lsr	r3, r3, #5
    8670:	e3520000 	cmp	r2, #0, 0
    8674:	03a03000 	moveq	r3, #0, 0
    8678:	e3530000 	cmp	r3, #0, 0
    867c:	1a000016 	bne	86dc <ppp_build+0x88>
    8680:	e2828004 	add	r8, r2, #4, 0
    8684:	e59d3018 	ldr	r3, [sp, #24]
    8688:	e1580003 	cmp	r8, r3
    868c:	8a000014 	bhi	86e4 <ppp_build+0x90>
    8690:	e3e03000 	mvn	r3, #0, 0
    8694:	e5c53000 	strb	r3, [r5]
    8698:	e3a03003 	mov	r3, #3, 0
    869c:	e5c53001 	strb	r3, [r5, #1]
    86a0:	e1a01000 	mov	r1, r0
    86a4:	e2850002 	add	r0, r5, #2, 0
    86a8:	ebffffc0 	bl	85b0 <ppp_put_be16>
    86ac:	e3a0c000 	mov	ip, #0, 0
    86b0:	e15c0006 	cmp	ip, r6
    86b4:	2a000004 	bcs	86cc <ppp_build+0x78>
    86b8:	e28ce004 	add	lr, ip, #4, 0
    86bc:	e7d7400c 	ldrb	r4, [r7, ip]
    86c0:	e7c5400e 	strb	r4, [r5, lr]
    86c4:	e28cc001 	add	ip, ip, #1, 0
    86c8:	eafffff8 	b	86b0 <ppp_build+0x5c>
    86cc:	e1a00008 	mov	r0, r8
    86d0:	e8bd81f0 	pop	{r4, r5, r6, r7, r8, pc}
    86d4:	e3e00000 	mvn	r0, #0, 0
    86d8:	e8bd81f0 	pop	{r4, r5, r6, r7, r8, pc}
    86dc:	e3e00000 	mvn	r0, #0, 0
    86e0:	e8bd81f0 	pop	{r4, r5, r6, r7, r8, pc}
    86e4:	e3e00001 	mvn	r0, #1, 0
    86e8:	e8bd81f0 	pop	{r4, r5, r6, r7, r8, pc}

000086ec <ppp_send>:
    86ec:	e59f3048 	ldr	r3, [pc, #72]	; 873c <ppp_send+0x50>
    86f0:	e1520003 	cmp	r2, r3
    86f4:	8a00000e 	bhi	8734 <ppp_send+0x48>
    86f8:	e52de004 	push	{lr}		; (str lr, [sp, #-4]!)
    86fc:	e24dde5e 	sub	sp, sp, #1504	; 0x5e0
    8700:	e24dd00c 	sub	sp, sp, #12, 0
    8704:	e3a03e5e 	mov	r3, #1504	; 0x5e0
    8708:	e58d3000 	str	r3, [sp]
    870c:	e28d3008 	add	r3, sp, #8, 0
    8710:	ebffffcf 	bl	8654 <ppp_build>
    8714:	e3500000 	cmp	r0, #0, 0
    8718:	ba000002 	blt	8728 <ppp_send+0x3c>
    871c:	e1a01000 	mov	r1, r0
    8720:	e28d0008 	add	r0, sp, #8, 0
    8724:	ebffff57 	bl	8488 <hdlc_send>
    8728:	e28dde5e 	add	sp, sp, #1504	; 0x5e0
    872c:	e28dd00c 	add	sp, sp, #12, 0
    8730:	e49df004 	pop	{pc}		; (ldr pc, [sp], #4)
    8734:	e3e00001 	mvn	r0, #1, 0
    8738:	e12fff1e 	bx	lr
    873c:	000005dc 	.word	0x000005dc

00008740 <ppp_recv>:
    8740:	e92d4070 	push	{r4, r5, r6, lr}
    8744:	e1a04001 	mov	r4, r1
    8748:	e16f3f11 	clz	r3, r1
    874c:	e1a032a3 	lsr	r3, r3, #5
    8750:	e3500000 	cmp	r0, #0, 0
    8754:	03a03001 	moveq	r3, #1, 0
    8758:	e3530000 	cmp	r3, #0, 0
    875c:	1a00000a 	bne	878c <ppp_recv+0x4c>
    8760:	e1a01002 	mov	r1, r2
    8764:	e1a05000 	mov	r5, r0
    8768:	e1a00004 	mov	r0, r4
    876c:	ebffff60 	bl	84f4 <hdlc_recv>
    8770:	e3500000 	cmp	r0, #0, 0
    8774:	b8bd8070 	poplt	{r4, r5, r6, pc}
    8778:	e1a02005 	mov	r2, r5
    877c:	e1a01000 	mov	r1, r0
    8780:	e1a00004 	mov	r0, r4
    8784:	ebffff8d 	bl	85c0 <ppp_parse>
    8788:	e8bd8070 	pop	{r4, r5, r6, pc}
    878c:	e3e00000 	mvn	r0, #0, 0
    8790:	e8bd8070 	pop	{r4, r5, r6, pc}

00008794 <ppp_dispatch>:
    8794:	e3500000 	cmp	r0, #0, 0
    8798:	0a000020 	beq	8820 <ppp_dispatch+0x8c>
    879c:	e92d4010 	push	{r4, lr}
    87a0:	e1a04001 	mov	r4, r1
    87a4:	e1d010b2 	ldrh	r1, [r0, #2]
    87a8:	e59fc090 	ldr	ip, [pc, #144]	; 8840 <ppp_dispatch+0xac>
    87ac:	e151000c 	cmp	r1, ip
    87b0:	0a00000e 	beq	87f0 <ppp_dispatch+0x5c>
    87b4:	e59f2088 	ldr	r2, [pc, #136]	; 8844 <ppp_dispatch+0xb0>
    87b8:	e1510002 	cmp	r1, r2
    87bc:	0a000005 	beq	87d8 <ppp_dispatch+0x44>
    87c0:	e3510021 	cmp	r1, #33, 0	; 0x21
    87c4:	0a00000f 	beq	8808 <ppp_dispatch+0x74>
    87c8:	e59f0078 	ldr	r0, [pc, #120]	; 8848 <ppp_dispatch+0xb4>
    87cc:	eb000257 	bl	9130 <printk>
    87d0:	e3e00003 	mvn	r0, #3, 0
    87d4:	e8bd8010 	pop	{r4, pc}
    87d8:	e3540000 	cmp	r4, #0, 0
    87dc:	0a000011 	beq	8828 <ppp_dispatch+0x94>
    87e0:	e5901008 	ldr	r1, [r0, #8]
    87e4:	e5900004 	ldr	r0, [r0, #4]
    87e8:	e12fff34 	blx	r4
    87ec:	e8bd8010 	pop	{r4, pc}
    87f0:	e3520000 	cmp	r2, #0, 0
    87f4:	0a00000d 	beq	8830 <ppp_dispatch+0x9c>
    87f8:	e5901008 	ldr	r1, [r0, #8]
    87fc:	e5900004 	ldr	r0, [r0, #4]
    8800:	e12fff32 	blx	r2
    8804:	e8bd8010 	pop	{r4, pc}
    8808:	e3530000 	cmp	r3, #0, 0
    880c:	0a000009 	beq	8838 <ppp_dispatch+0xa4>
    8810:	e5901008 	ldr	r1, [r0, #8]
    8814:	e5900004 	ldr	r0, [r0, #4]
    8818:	e12fff33 	blx	r3
    881c:	e8bd8010 	pop	{r4, pc}
    8820:	e3e00000 	mvn	r0, #0, 0
    8824:	e12fff1e 	bx	lr
    8828:	e3e00003 	mvn	r0, #3, 0
    882c:	e8bd8010 	pop	{r4, pc}
    8830:	e3e00003 	mvn	r0, #3, 0
    8834:	e8bd8010 	pop	{r4, pc}
    8838:	e3e00003 	mvn	r0, #3, 0
    883c:	e8bd8010 	pop	{r4, pc}
    8840:	00008021 	.word	0x00008021
    8844:	0000c021 	.word	0x0000c021
    8848:	00009c1c 	.word	0x00009c1c

0000884c <ppp_print_packet>:
    884c:	e52de004 	push	{lr}		; (str lr, [sp, #-4]!)
    8850:	e24dd00c 	sub	sp, sp, #12, 0
    8854:	e3500000 	cmp	r0, #0, 0
    8858:	0a000008 	beq	8880 <ppp_print_packet+0x34>
    885c:	e5903008 	ldr	r3, [r0, #8]
    8860:	e58d3000 	str	r3, [sp]
    8864:	e1d030b2 	ldrh	r3, [r0, #2]
    8868:	e5d02001 	ldrb	r2, [r0, #1]
    886c:	e5d01000 	ldrb	r1, [r0]
    8870:	e59f0014 	ldr	r0, [pc, #20]	; 888c <ppp_print_packet+0x40>
    8874:	eb00022d 	bl	9130 <printk>
    8878:	e28dd00c 	add	sp, sp, #12, 0
    887c:	e49df004 	pop	{pc}		; (ldr pc, [sp], #4)
    8880:	e59f0008 	ldr	r0, [pc, #8]	; 8890 <ppp_print_packet+0x44>
    8884:	eb000229 	bl	9130 <printk>
    8888:	eafffffa 	b	8878 <ppp_print_packet+0x2c>
    888c:	00009c58 	.word	0x00009c58
    8890:	00009c48 	.word	0x00009c48

00008894 <get_be16>:
    8894:	e5d02000 	ldrb	r2, [r0]
    8898:	e5d00001 	ldrb	r0, [r0, #1]
    889c:	e1800402 	orr	r0, r0, r2, lsl #8
    88a0:	e12fff1e 	bx	lr

000088a4 <get_be32>:
    88a4:	e5d02000 	ldrb	r2, [r0]
    88a8:	e5d03001 	ldrb	r3, [r0, #1]
    88ac:	e1a03803 	lsl	r3, r3, #16
    88b0:	e1833c02 	orr	r3, r3, r2, lsl #24
    88b4:	e5d02002 	ldrb	r2, [r0, #2]
    88b8:	e1833402 	orr	r3, r3, r2, lsl #8
    88bc:	e5d00003 	ldrb	r0, [r0, #3]
    88c0:	e1830000 	orr	r0, r3, r0
    88c4:	e12fff1e 	bx	lr

000088c8 <put_be16>:
    88c8:	e1a03421 	lsr	r3, r1, #8
    88cc:	e5c03000 	strb	r3, [r0]
    88d0:	e5c01001 	strb	r1, [r0, #1]
    88d4:	e12fff1e 	bx	lr

000088d8 <put_be32>:
    88d8:	e1a03c21 	lsr	r3, r1, #24
    88dc:	e5c03000 	strb	r3, [r0]
    88e0:	e1a03821 	lsr	r3, r1, #16
    88e4:	e5c03001 	strb	r3, [r0, #1]
    88e8:	e1a03421 	lsr	r3, r1, #8
    88ec:	e5c03002 	strb	r3, [r0, #2]
    88f0:	e5c01003 	strb	r1, [r0, #3]
    88f4:	e12fff1e 	bx	lr

000088f8 <lcp_send_control>:
    88f8:	e3530c01 	cmp	r3, #256	; 0x100
    88fc:	8a000019 	bhi	8968 <lcp_send_control+0x70>
    8900:	e92d4070 	push	{r4, r5, r6, lr}
    8904:	e24ddf42 	sub	sp, sp, #264	; 0x108
    8908:	e1a05002 	mov	r5, r2
    890c:	e1a04003 	mov	r4, r3
    8910:	e2836004 	add	r6, r3, #4, 0
    8914:	e5cd0004 	strb	r0, [sp, #4]
    8918:	e5cd1005 	strb	r1, [sp, #5]
    891c:	e6ff1076 	uxth	r1, r6
    8920:	e28d0006 	add	r0, sp, #6, 0
    8924:	ebffffe7 	bl	88c8 <put_be16>
    8928:	e3a01000 	mov	r1, #0, 0
    892c:	e1510004 	cmp	r1, r4
    8930:	2a000006 	bcs	8950 <lcp_send_control+0x58>
    8934:	e2810004 	add	r0, r1, #4, 0
    8938:	e7d5c001 	ldrb	ip, [r5, r1]
    893c:	e28d3f42 	add	r3, sp, #264	; 0x108
    8940:	e0830000 	add	r0, r3, r0
    8944:	e540c104 	strb	ip, [r0, #-260]	; 0xfffffefc
    8948:	e2811001 	add	r1, r1, #1, 0
    894c:	eafffff6 	b	892c <lcp_send_control+0x34>
    8950:	e1a02006 	mov	r2, r6
    8954:	e28d1004 	add	r1, sp, #4, 0
    8958:	e59f0010 	ldr	r0, [pc, #16]	; 8970 <lcp_send_control+0x78>
    895c:	ebffff62 	bl	86ec <ppp_send>
    8960:	e28ddf42 	add	sp, sp, #264	; 0x108
    8964:	e8bd8070 	pop	{r4, r5, r6, pc}
    8968:	e3e00003 	mvn	r0, #3, 0
    896c:	e12fff1e 	bx	lr
    8970:	0000c021 	.word	0x0000c021

00008974 <lcp_send_config_rej>:
    8974:	e92d4010 	push	{r4, lr}
    8978:	e1a03002 	mov	r3, r2
    897c:	e1a02001 	mov	r2, r1
    8980:	e1a01000 	mov	r1, r0
    8984:	e3a00004 	mov	r0, #4, 0
    8988:	ebffffda 	bl	88f8 <lcp_send_control>
    898c:	e8bd8010 	pop	{r4, pc}

00008990 <lcp_send_config_nak>:
    8990:	e92d4010 	push	{r4, lr}
    8994:	e1a03002 	mov	r3, r2
    8998:	e1a02001 	mov	r2, r1
    899c:	e1a01000 	mov	r1, r0
    89a0:	e3a00003 	mov	r0, #3, 0
    89a4:	ebffffd3 	bl	88f8 <lcp_send_control>
    89a8:	e8bd8010 	pop	{r4, pc}

000089ac <lcp_send_config_ack>:
    89ac:	e92d4010 	push	{r4, lr}
    89b0:	e1a03002 	mov	r3, r2
    89b4:	e1a02001 	mov	r2, r1
    89b8:	e1a01000 	mov	r1, r0
    89bc:	e3a00002 	mov	r0, #2, 0
    89c0:	ebffffcc 	bl	88f8 <lcp_send_control>
    89c4:	e8bd8010 	pop	{r4, pc}

000089c8 <lcp_handle_config_req>:
    89c8:	e92d47f0 	push	{r4, r5, r6, r7, r8, r9, sl, lr}
    89cc:	e24ddc02 	sub	sp, sp, #512	; 0x200
    89d0:	e1a0a000 	mov	sl, r0
    89d4:	e5904004 	ldr	r4, [r0, #4]
    89d8:	e5908008 	ldr	r8, [r0, #8]
    89dc:	e3a09000 	mov	r9, #0, 0
    89e0:	e1a07009 	mov	r7, r9
    89e4:	ea000075 	b	8bc0 <lcp_handle_config_req+0x1f8>
    89e8:	e59f028c 	ldr	r0, [pc, #652]	; 8c7c <lcp_handle_config_req+0x2b4>
    89ec:	eb0001cf 	bl	9130 <printk>
    89f0:	e3e00001 	mvn	r0, #1, 0
    89f4:	ea000004 	b	8a0c <lcp_handle_config_req+0x44>
    89f8:	e1a02008 	mov	r2, r8
    89fc:	e1a01005 	mov	r1, r5
    8a00:	e59f0278 	ldr	r0, [pc, #632]	; 8c80 <lcp_handle_config_req+0x2b8>
    8a04:	eb0001c9 	bl	9130 <printk>
    8a08:	e3e00001 	mvn	r0, #1, 0
    8a0c:	e28ddc02 	add	sp, sp, #512	; 0x200
    8a10:	e8bd87f0 	pop	{r4, r5, r6, r7, r8, r9, sl, pc}
    8a14:	e3550004 	cmp	r5, #4, 0
    8a18:	0a00000b 	beq	8a4c <lcp_handle_config_req+0x84>
    8a1c:	e3a03000 	mov	r3, #0, 0
    8a20:	ea000005 	b	8a3c <lcp_handle_config_req+0x74>
    8a24:	e0872003 	add	r2, r7, r3
    8a28:	e7d41003 	ldrb	r1, [r4, r3]
    8a2c:	e28d0c02 	add	r0, sp, #512	; 0x200
    8a30:	e0802002 	add	r2, r0, r2
    8a34:	e5421100 	strb	r1, [r2, #-256]	; 0xffffff00
    8a38:	e2833001 	add	r3, r3, #1, 0
    8a3c:	e1560003 	cmp	r6, r3
    8a40:	8afffff7 	bhi	8a24 <lcp_handle_config_req+0x5c>
    8a44:	e0877005 	add	r7, r7, r5
    8a48:	ea00005a 	b	8bb8 <lcp_handle_config_req+0x1f0>
    8a4c:	e2840002 	add	r0, r4, #2, 0
    8a50:	ebffff8f 	bl	8894 <get_be16>
    8a54:	e1a06000 	mov	r6, r0
    8a58:	e1a01000 	mov	r1, r0
    8a5c:	e59f0220 	ldr	r0, [pc, #544]	; 8c84 <lcp_handle_config_req+0x2bc>
    8a60:	eb0001b2 	bl	9130 <printk>
    8a64:	e59f321c 	ldr	r3, [pc, #540]	; 8c88 <lcp_handle_config_req+0x2c0>
    8a68:	e1d310b0 	ldrh	r1, [r3]
    8a6c:	e1510006 	cmp	r1, r6
    8a70:	0a000050 	beq	8bb8 <lcp_handle_config_req+0x1f0>
    8a74:	e28d3c02 	add	r3, sp, #512	; 0x200
    8a78:	e0833009 	add	r3, r3, r9
    8a7c:	e3a02001 	mov	r2, #1, 0
    8a80:	e5432200 	strb	r2, [r3, #-512]	; 0xfffffe00
    8a84:	e0893002 	add	r3, r9, r2
    8a88:	e28d2c02 	add	r2, sp, #512	; 0x200
    8a8c:	e0823003 	add	r3, r2, r3
    8a90:	e3a02004 	mov	r2, #4, 0
    8a94:	e5432200 	strb	r2, [r3, #-512]	; 0xfffffe00
    8a98:	e2890002 	add	r0, r9, #2, 0
    8a9c:	e08d0000 	add	r0, sp, r0
    8aa0:	ebffff88 	bl	88c8 <put_be16>
    8aa4:	e2899004 	add	r9, r9, #4, 0
    8aa8:	ea000042 	b	8bb8 <lcp_handle_config_req+0x1f0>
    8aac:	e3550006 	cmp	r5, #6, 0
    8ab0:	0a00000b 	beq	8ae4 <lcp_handle_config_req+0x11c>
    8ab4:	e3a03000 	mov	r3, #0, 0
    8ab8:	ea000005 	b	8ad4 <lcp_handle_config_req+0x10c>
    8abc:	e0872003 	add	r2, r7, r3
    8ac0:	e7d41003 	ldrb	r1, [r4, r3]
    8ac4:	e28d0c02 	add	r0, sp, #512	; 0x200
    8ac8:	e0802002 	add	r2, r0, r2
    8acc:	e5421100 	strb	r1, [r2, #-256]	; 0xffffff00
    8ad0:	e2833001 	add	r3, r3, #1, 0
    8ad4:	e1560003 	cmp	r6, r3
    8ad8:	8afffff7 	bhi	8abc <lcp_handle_config_req+0xf4>
    8adc:	e0877005 	add	r7, r7, r5
    8ae0:	ea000034 	b	8bb8 <lcp_handle_config_req+0x1f0>
    8ae4:	e2840002 	add	r0, r4, #2, 0
    8ae8:	ebffff6d 	bl	88a4 <get_be32>
    8aec:	e1a06000 	mov	r6, r0
    8af0:	e1a01000 	mov	r1, r0
    8af4:	e59f0190 	ldr	r0, [pc, #400]	; 8c8c <lcp_handle_config_req+0x2c4>
    8af8:	eb00018c 	bl	9130 <printk>
    8afc:	e59f3184 	ldr	r3, [pc, #388]	; 8c88 <lcp_handle_config_req+0x2c0>
    8b00:	e5931004 	ldr	r1, [r3, #4]
    8b04:	e1510006 	cmp	r1, r6
    8b08:	0a00002a 	beq	8bb8 <lcp_handle_config_req+0x1f0>
    8b0c:	e28d3c02 	add	r3, sp, #512	; 0x200
    8b10:	e0833009 	add	r3, r3, r9
    8b14:	e3a02002 	mov	r2, #2, 0
    8b18:	e5432200 	strb	r2, [r3, #-512]	; 0xfffffe00
    8b1c:	e2893001 	add	r3, r9, #1, 0
    8b20:	e28d2c02 	add	r2, sp, #512	; 0x200
    8b24:	e0823003 	add	r3, r2, r3
    8b28:	e3a02006 	mov	r2, #6, 0
    8b2c:	e5432200 	strb	r2, [r3, #-512]	; 0xfffffe00
    8b30:	e2890002 	add	r0, r9, #2, 0
    8b34:	e08d0000 	add	r0, sp, r0
    8b38:	ebffff66 	bl	88d8 <put_be32>
    8b3c:	e2899006 	add	r9, r9, #6, 0
    8b40:	ea00001c 	b	8bb8 <lcp_handle_config_req+0x1f0>
    8b44:	e3550006 	cmp	r5, #6, 0
    8b48:	0a00000b 	beq	8b7c <lcp_handle_config_req+0x1b4>
    8b4c:	e3a03000 	mov	r3, #0, 0
    8b50:	ea000005 	b	8b6c <lcp_handle_config_req+0x1a4>
    8b54:	e0872003 	add	r2, r7, r3
    8b58:	e7d41003 	ldrb	r1, [r4, r3]
    8b5c:	e28d0c02 	add	r0, sp, #512	; 0x200
    8b60:	e0802002 	add	r2, r0, r2
    8b64:	e5421100 	strb	r1, [r2, #-256]	; 0xffffff00
    8b68:	e2833001 	add	r3, r3, #1, 0
    8b6c:	e1560003 	cmp	r6, r3
    8b70:	8afffff7 	bhi	8b54 <lcp_handle_config_req+0x18c>
    8b74:	e0877005 	add	r7, r7, r5
    8b78:	ea00000e 	b	8bb8 <lcp_handle_config_req+0x1f0>
    8b7c:	e2840002 	add	r0, r4, #2, 0
    8b80:	ebffff47 	bl	88a4 <get_be32>
    8b84:	e1a01000 	mov	r1, r0
    8b88:	e59f0100 	ldr	r0, [pc, #256]	; 8c90 <lcp_handle_config_req+0x2c8>
    8b8c:	eb000167 	bl	9130 <printk>
    8b90:	ea000008 	b	8bb8 <lcp_handle_config_req+0x1f0>
    8b94:	e0872003 	add	r2, r7, r3
    8b98:	e7d41003 	ldrb	r1, [r4, r3]
    8b9c:	e28d0c02 	add	r0, sp, #512	; 0x200
    8ba0:	e0802002 	add	r2, r0, r2
    8ba4:	e5421100 	strb	r1, [r2, #-256]	; 0xffffff00
    8ba8:	e2833001 	add	r3, r3, #1, 0
    8bac:	e1560003 	cmp	r6, r3
    8bb0:	8afffff7 	bhi	8b94 <lcp_handle_config_req+0x1cc>
    8bb4:	e0877005 	add	r7, r7, r5
    8bb8:	e0844005 	add	r4, r4, r5
    8bbc:	e0488005 	sub	r8, r8, r5
    8bc0:	e3580000 	cmp	r8, #0, 0
    8bc4:	0a000013 	beq	8c18 <lcp_handle_config_req+0x250>
    8bc8:	e3580001 	cmp	r8, #1, 0
    8bcc:	9affff85 	bls	89e8 <lcp_handle_config_req+0x20>
    8bd0:	e5d41000 	ldrb	r1, [r4]
    8bd4:	e5d45001 	ldrb	r5, [r4, #1]
    8bd8:	e3550001 	cmp	r5, #1, 0
    8bdc:	9affff85 	bls	89f8 <lcp_handle_config_req+0x30>
    8be0:	e1a06005 	mov	r6, r5
    8be4:	e1550008 	cmp	r5, r8
    8be8:	8affff82 	bhi	89f8 <lcp_handle_config_req+0x30>
    8bec:	e3510002 	cmp	r1, #2, 0
    8bf0:	0affffad 	beq	8aac <lcp_handle_config_req+0xe4>
    8bf4:	e3510005 	cmp	r1, #5, 0
    8bf8:	0affffd1 	beq	8b44 <lcp_handle_config_req+0x17c>
    8bfc:	e3510001 	cmp	r1, #1, 0
    8c00:	0affff83 	beq	8a14 <lcp_handle_config_req+0x4c>
    8c04:	e1a02005 	mov	r2, r5
    8c08:	e59f0084 	ldr	r0, [pc, #132]	; 8c94 <lcp_handle_config_req+0x2cc>
    8c0c:	eb000147 	bl	9130 <printk>
    8c10:	e3a03000 	mov	r3, #0, 0
    8c14:	eaffffe4 	b	8bac <lcp_handle_config_req+0x1e4>
    8c18:	e3570000 	cmp	r7, #0, 0
    8c1c:	1a000008 	bne	8c44 <lcp_handle_config_req+0x27c>
    8c20:	e3590000 	cmp	r9, #0, 0
    8c24:	1a00000d 	bne	8c60 <lcp_handle_config_req+0x298>
    8c28:	e59f0068 	ldr	r0, [pc, #104]	; 8c98 <lcp_handle_config_req+0x2d0>
    8c2c:	eb00013f 	bl	9130 <printk>
    8c30:	e59a2008 	ldr	r2, [sl, #8]
    8c34:	e59a1004 	ldr	r1, [sl, #4]
    8c38:	e5da0001 	ldrb	r0, [sl, #1]
    8c3c:	ebffff5a 	bl	89ac <lcp_send_config_ack>
    8c40:	eaffff71 	b	8a0c <lcp_handle_config_req+0x44>
    8c44:	e59f0050 	ldr	r0, [pc, #80]	; 8c9c <lcp_handle_config_req+0x2d4>
    8c48:	eb000138 	bl	9130 <printk>
    8c4c:	e1a02007 	mov	r2, r7
    8c50:	e28d1c01 	add	r1, sp, #256	; 0x100
    8c54:	e5da0001 	ldrb	r0, [sl, #1]
    8c58:	ebffff45 	bl	8974 <lcp_send_config_rej>
    8c5c:	eaffff6a 	b	8a0c <lcp_handle_config_req+0x44>
    8c60:	e59f0038 	ldr	r0, [pc, #56]	; 8ca0 <lcp_handle_config_req+0x2d8>
    8c64:	eb000131 	bl	9130 <printk>
    8c68:	e1a02009 	mov	r2, r9
    8c6c:	e1a0100d 	mov	r1, sp
    8c70:	e5da0001 	ldrb	r0, [sl, #1]
    8c74:	ebffff45 	bl	8990 <lcp_send_config_nak>
    8c78:	eaffff63 	b	8a0c <lcp_handle_config_req+0x44>
    8c7c:	00009c8c 	.word	0x00009c8c
    8c80:	00009cac 	.word	0x00009cac
    8c84:	00009cd4 	.word	0x00009cd4
    8c88:	0000a054 	.word	0x0000a054
    8c8c:	00009ce8 	.word	0x00009ce8
    8c90:	00009cfc 	.word	0x00009cfc
    8c94:	00009d10 	.word	0x00009d10
    8c98:	00009d80 	.word	0x00009d80
    8c9c:	00009d44 	.word	0x00009d44
    8ca0:	00009d64 	.word	0x00009d64

00008ca4 <lcp_send_term_ack>:
    8ca4:	e92d4010 	push	{r4, lr}
    8ca8:	e1a03002 	mov	r3, r2
    8cac:	e1a02001 	mov	r2, r1
    8cb0:	e1a01000 	mov	r1, r0
    8cb4:	e3a00006 	mov	r0, #6, 0
    8cb8:	ebffff0e 	bl	88f8 <lcp_send_control>
    8cbc:	e8bd8010 	pop	{r4, pc}

00008cc0 <lcp_send_echo_reply>:
    8cc0:	e92d4010 	push	{r4, lr}
    8cc4:	e1a03002 	mov	r3, r2
    8cc8:	e1a02001 	mov	r2, r1
    8ccc:	e1a01000 	mov	r1, r0
    8cd0:	e3a0000a 	mov	r0, #10, 0
    8cd4:	ebffff07 	bl	88f8 <lcp_send_control>
    8cd8:	e8bd8010 	pop	{r4, pc}

00008cdc <lcp_init>:
    8cdc:	e3500000 	cmp	r0, #0, 0
    8ce0:	159f3008 	ldrne	r3, [pc, #8]	; 8cf0 <lcp_init+0x14>
    8ce4:	18900007 	ldmne	r0, {r0, r1, r2}
    8ce8:	18830007 	stmne	r3, {r0, r1, r2}
    8cec:	e12fff1e 	bx	lr
    8cf0:	0000a054 	.word	0x0000a054

00008cf4 <lcp_parse>:
    8cf4:	e92d4070 	push	{r4, r5, r6, lr}
    8cf8:	e1a05002 	mov	r5, r2
    8cfc:	e16f2f12 	clz	r2, r2
    8d00:	e1a022a2 	lsr	r2, r2, #5
    8d04:	e3500000 	cmp	r0, #0, 0
    8d08:	03a02001 	moveq	r2, #1, 0
    8d0c:	e3520000 	cmp	r2, #0, 0
    8d10:	1a000014 	bne	8d68 <lcp_parse+0x74>
    8d14:	e1a06001 	mov	r6, r1
    8d18:	e1a04000 	mov	r4, r0
    8d1c:	e3510003 	cmp	r1, #3, 0
    8d20:	9a000012 	bls	8d70 <lcp_parse+0x7c>
    8d24:	e5d03000 	ldrb	r3, [r0]
    8d28:	e5c53000 	strb	r3, [r5]
    8d2c:	e5d03001 	ldrb	r3, [r0, #1]
    8d30:	e5c53001 	strb	r3, [r5, #1]
    8d34:	e2800002 	add	r0, r0, #2, 0
    8d38:	ebfffed5 	bl	8894 <get_be16>
    8d3c:	e1c500b2 	strh	r0, [r5, #2]
    8d40:	e3500003 	cmp	r0, #3, 0
    8d44:	9a00000b 	bls	8d78 <lcp_parse+0x84>
    8d48:	e1500006 	cmp	r0, r6
    8d4c:	8a00000b 	bhi	8d80 <lcp_parse+0x8c>
    8d50:	e2844004 	add	r4, r4, #4, 0
    8d54:	e5854004 	str	r4, [r5, #4]
    8d58:	e2400004 	sub	r0, r0, #4, 0
    8d5c:	e5850008 	str	r0, [r5, #8]
    8d60:	e3a00000 	mov	r0, #0, 0
    8d64:	e8bd8070 	pop	{r4, r5, r6, pc}
    8d68:	e3e00000 	mvn	r0, #0, 0
    8d6c:	e8bd8070 	pop	{r4, r5, r6, pc}
    8d70:	e3e00002 	mvn	r0, #2, 0
    8d74:	e8bd8070 	pop	{r4, r5, r6, pc}
    8d78:	e3e00002 	mvn	r0, #2, 0
    8d7c:	e8bd8070 	pop	{r4, r5, r6, pc}
    8d80:	e3e00002 	mvn	r0, #2, 0
    8d84:	e8bd8070 	pop	{r4, r5, r6, pc}

00008d88 <lcp_print_packet>:
    8d88:	e52de004 	push	{lr}		; (str lr, [sp, #-4]!)
    8d8c:	e24dd00c 	sub	sp, sp, #12, 0
    8d90:	e3500000 	cmp	r0, #0, 0
    8d94:	0a000008 	beq	8dbc <lcp_print_packet+0x34>
    8d98:	e5903008 	ldr	r3, [r0, #8]
    8d9c:	e58d3000 	str	r3, [sp]
    8da0:	e1d030b2 	ldrh	r3, [r0, #2]
    8da4:	e5d02001 	ldrb	r2, [r0, #1]
    8da8:	e5d01000 	ldrb	r1, [r0]
    8dac:	e59f0014 	ldr	r0, [pc, #20]	; 8dc8 <lcp_print_packet+0x40>
    8db0:	eb0000de 	bl	9130 <printk>
    8db4:	e28dd00c 	add	sp, sp, #12, 0
    8db8:	e49df004 	pop	{pc}		; (ldr pc, [sp], #4)
    8dbc:	e59f0008 	ldr	r0, [pc, #8]	; 8dcc <lcp_print_packet+0x44>
    8dc0:	eb0000da 	bl	9130 <printk>
    8dc4:	eafffffa 	b	8db4 <lcp_print_packet+0x2c>
    8dc8:	00009dac 	.word	0x00009dac
    8dcc:	00009d9c 	.word	0x00009d9c

00008dd0 <lcp_handle_packet>:
    8dd0:	e92d4010 	push	{r4, lr}
    8dd4:	e24dd010 	sub	sp, sp, #16, 0
    8dd8:	e28d2004 	add	r2, sp, #4, 0
    8ddc:	ebffffc4 	bl	8cf4 <lcp_parse>
    8de0:	e2504000 	subs	r4, r0, #0, 0
    8de4:	ba000010 	blt	8e2c <lcp_handle_packet+0x5c>
    8de8:	e28d0004 	add	r0, sp, #4, 0
    8dec:	ebffffe5 	bl	8d88 <lcp_print_packet>
    8df0:	e5dd1004 	ldrb	r1, [sp, #4]
    8df4:	e2413001 	sub	r3, r1, #1, 0
    8df8:	e3530009 	cmp	r3, #9, 0
    8dfc:	979ff103 	ldrls	pc, [pc, r3, lsl #2]
    8e00:	ea000037 	b	8ee4 <lcp_handle_packet+0x114>
    8e04:	00008e44 	.word	0x00008e44
    8e08:	00008e54 	.word	0x00008e54
    8e0c:	00008e64 	.word	0x00008e64
    8e10:	00008e74 	.word	0x00008e74
    8e14:	00008e84 	.word	0x00008e84
    8e18:	00008ea4 	.word	0x00008ea4
    8e1c:	00008ee4 	.word	0x00008ee4
    8e20:	00008ee4 	.word	0x00008ee4
    8e24:	00008eb4 	.word	0x00008eb4
    8e28:	00008ed4 	.word	0x00008ed4
    8e2c:	e1a01004 	mov	r1, r4
    8e30:	e59f00bc 	ldr	r0, [pc, #188]	; 8ef4 <lcp_handle_packet+0x124>
    8e34:	eb0000bd 	bl	9130 <printk>
    8e38:	e1a00004 	mov	r0, r4
    8e3c:	e28dd010 	add	sp, sp, #16, 0
    8e40:	e8bd8010 	pop	{r4, pc}
    8e44:	e28d0004 	add	r0, sp, #4, 0
    8e48:	ebfffede 	bl	89c8 <lcp_handle_config_req>
    8e4c:	e1a04000 	mov	r4, r0
    8e50:	eafffff8 	b	8e38 <lcp_handle_packet+0x68>
    8e54:	e59f009c 	ldr	r0, [pc, #156]	; 8ef8 <lcp_handle_packet+0x128>
    8e58:	eb0000b4 	bl	9130 <printk>
    8e5c:	e3a04000 	mov	r4, #0, 0
    8e60:	eafffff4 	b	8e38 <lcp_handle_packet+0x68>
    8e64:	e59f0090 	ldr	r0, [pc, #144]	; 8efc <lcp_handle_packet+0x12c>
    8e68:	eb0000b0 	bl	9130 <printk>
    8e6c:	e3a04000 	mov	r4, #0, 0
    8e70:	eafffff0 	b	8e38 <lcp_handle_packet+0x68>
    8e74:	e59f0084 	ldr	r0, [pc, #132]	; 8f00 <lcp_handle_packet+0x130>
    8e78:	eb0000ac 	bl	9130 <printk>
    8e7c:	e3a04000 	mov	r4, #0, 0
    8e80:	eaffffec 	b	8e38 <lcp_handle_packet+0x68>
    8e84:	e59f0078 	ldr	r0, [pc, #120]	; 8f04 <lcp_handle_packet+0x134>
    8e88:	eb0000a8 	bl	9130 <printk>
    8e8c:	e59d200c 	ldr	r2, [sp, #12]
    8e90:	e59d1008 	ldr	r1, [sp, #8]
    8e94:	e5dd0005 	ldrb	r0, [sp, #5]
    8e98:	ebffff81 	bl	8ca4 <lcp_send_term_ack>
    8e9c:	e1a04000 	mov	r4, r0
    8ea0:	eaffffe4 	b	8e38 <lcp_handle_packet+0x68>
    8ea4:	e59f005c 	ldr	r0, [pc, #92]	; 8f08 <lcp_handle_packet+0x138>
    8ea8:	eb0000a0 	bl	9130 <printk>
    8eac:	e3a04000 	mov	r4, #0, 0
    8eb0:	eaffffe0 	b	8e38 <lcp_handle_packet+0x68>
    8eb4:	e59f0050 	ldr	r0, [pc, #80]	; 8f0c <lcp_handle_packet+0x13c>
    8eb8:	eb00009c 	bl	9130 <printk>
    8ebc:	e59d200c 	ldr	r2, [sp, #12]
    8ec0:	e59d1008 	ldr	r1, [sp, #8]
    8ec4:	e5dd0005 	ldrb	r0, [sp, #5]
    8ec8:	ebffff7c 	bl	8cc0 <lcp_send_echo_reply>
    8ecc:	e1a04000 	mov	r4, r0
    8ed0:	eaffffd8 	b	8e38 <lcp_handle_packet+0x68>
    8ed4:	e59f0034 	ldr	r0, [pc, #52]	; 8f10 <lcp_handle_packet+0x140>
    8ed8:	eb000094 	bl	9130 <printk>
    8edc:	e3a04000 	mov	r4, #0, 0
    8ee0:	eaffffd4 	b	8e38 <lcp_handle_packet+0x68>
    8ee4:	e59f0028 	ldr	r0, [pc, #40]	; 8f14 <lcp_handle_packet+0x144>
    8ee8:	eb000090 	bl	9130 <printk>
    8eec:	e3a04000 	mov	r4, #0, 0
    8ef0:	eaffffd0 	b	8e38 <lcp_handle_packet+0x68>
    8ef4:	00009dd4 	.word	0x00009dd4
    8ef8:	00009dec 	.word	0x00009dec
    8efc:	00009e0c 	.word	0x00009e0c
    8f00:	00009e2c 	.word	0x00009e2c
    8f04:	00009e4c 	.word	0x00009e4c
    8f08:	00009e84 	.word	0x00009e84
    8f0c:	00009ea4 	.word	0x00009ea4
    8f10:	00009ed4 	.word	0x00009ed4
    8f14:	00009ef0 	.word	0x00009ef0

00008f18 <uart_init>:
    8f18:	e92d4010 	push	{r4, lr}
    8f1c:	eb0001af 	bl	95e0 <dev_barrier>
    8f20:	e3a01002 	mov	r1, #2, 0
    8f24:	e3a0000e 	mov	r0, #14, 0
    8f28:	eb000248 	bl	9850 <gpio_set_function>
    8f2c:	e3a01002 	mov	r1, #2, 0
    8f30:	e3a0000f 	mov	r0, #15, 0
    8f34:	eb000245 	bl	9850 <gpio_set_function>
    8f38:	eb0001a8 	bl	95e0 <dev_barrier>
    8f3c:	e59f4074 	ldr	r4, [pc, #116]	; 8fb8 <uart_init+0xa0>
    8f40:	e1a00004 	mov	r0, r4
    8f44:	ebfffc38 	bl	802c <GET32>
    8f48:	e3801001 	orr	r1, r0, #1, 0
    8f4c:	e1a00004 	mov	r0, r4
    8f50:	ebfffc33 	bl	8024 <PUT32>
    8f54:	eb0001a1 	bl	95e0 <dev_barrier>
    8f58:	e284405c 	add	r4, r4, #92, 0	; 0x5c
    8f5c:	e3a01000 	mov	r1, #0, 0
    8f60:	e1a00004 	mov	r0, r4
    8f64:	ebfffc2e 	bl	8024 <PUT32>
    8f68:	e3a01000 	mov	r1, #0, 0
    8f6c:	e59f0048 	ldr	r0, [pc, #72]	; 8fbc <uart_init+0xa4>
    8f70:	ebfffc2b 	bl	8024 <PUT32>
    8f74:	e3a01006 	mov	r1, #6, 0
    8f78:	e59f0040 	ldr	r0, [pc, #64]	; 8fc0 <uart_init+0xa8>
    8f7c:	ebfffc28 	bl	8024 <PUT32>
    8f80:	e3a01000 	mov	r1, #0, 0
    8f84:	e59f0038 	ldr	r0, [pc, #56]	; 8fc4 <uart_init+0xac>
    8f88:	ebfffc25 	bl	8024 <PUT32>
    8f8c:	e59f1034 	ldr	r1, [pc, #52]	; 8fc8 <uart_init+0xb0>
    8f90:	e59f0034 	ldr	r0, [pc, #52]	; 8fcc <uart_init+0xb4>
    8f94:	ebfffc22 	bl	8024 <PUT32>
    8f98:	e3a01003 	mov	r1, #3, 0
    8f9c:	e59f002c 	ldr	r0, [pc, #44]	; 8fd0 <uart_init+0xb8>
    8fa0:	ebfffc1f 	bl	8024 <PUT32>
    8fa4:	e3a01003 	mov	r1, #3, 0
    8fa8:	e1a00004 	mov	r0, r4
    8fac:	ebfffc1c 	bl	8024 <PUT32>
    8fb0:	eb00018a 	bl	95e0 <dev_barrier>
    8fb4:	e8bd8010 	pop	{r4, pc}
    8fb8:	20215004 	.word	0x20215004
    8fbc:	20215050 	.word	0x20215050
    8fc0:	20215048 	.word	0x20215048
    8fc4:	20215044 	.word	0x20215044
    8fc8:	0000010e 	.word	0x0000010e
    8fcc:	20215068 	.word	0x20215068
    8fd0:	2021504c 	.word	0x2021504c

00008fd4 <uart_can_put8>:
    8fd4:	e92d4010 	push	{r4, lr}
    8fd8:	eb000180 	bl	95e0 <dev_barrier>
    8fdc:	e59f0018 	ldr	r0, [pc, #24]	; 8ffc <uart_can_put8+0x28>
    8fe0:	ebfffc11 	bl	802c <GET32>
    8fe4:	e3100020 	tst	r0, #32, 0
    8fe8:	13a04001 	movne	r4, #1, 0
    8fec:	03a04000 	moveq	r4, #0, 0
    8ff0:	eb00017a 	bl	95e0 <dev_barrier>
    8ff4:	e1a00004 	mov	r0, r4
    8ff8:	e8bd8010 	pop	{r4, pc}
    8ffc:	20215054 	.word	0x20215054

00009000 <uart_put8>:
    9000:	e92d4010 	push	{r4, lr}
    9004:	e1a04000 	mov	r4, r0
    9008:	eb000174 	bl	95e0 <dev_barrier>
    900c:	ebfffff0 	bl	8fd4 <uart_can_put8>
    9010:	e3500000 	cmp	r0, #0, 0
    9014:	0afffffc 	beq	900c <uart_put8+0xc>
    9018:	e1a01004 	mov	r1, r4
    901c:	e59f000c 	ldr	r0, [pc, #12]	; 9030 <uart_put8+0x30>
    9020:	ebfffbff 	bl	8024 <PUT32>
    9024:	eb00016d 	bl	95e0 <dev_barrier>
    9028:	e3a00001 	mov	r0, #1, 0
    902c:	e8bd8010 	pop	{r4, pc}
    9030:	20215040 	.word	0x20215040

00009034 <uart_has_data>:
    9034:	e92d4010 	push	{r4, lr}
    9038:	eb000168 	bl	95e0 <dev_barrier>
    903c:	e59f0010 	ldr	r0, [pc, #16]	; 9054 <uart_has_data+0x20>
    9040:	ebfffbf9 	bl	802c <GET32>
    9044:	e2004001 	and	r4, r0, #1, 0
    9048:	eb000164 	bl	95e0 <dev_barrier>
    904c:	e1a00004 	mov	r0, r4
    9050:	e8bd8010 	pop	{r4, pc}
    9054:	20215054 	.word	0x20215054

00009058 <uart_get8>:
    9058:	e92d4010 	push	{r4, lr}
    905c:	eb00015f 	bl	95e0 <dev_barrier>
    9060:	ebfffff3 	bl	9034 <uart_has_data>
    9064:	e3500000 	cmp	r0, #0, 0
    9068:	0afffffc 	beq	9060 <uart_get8+0x8>
    906c:	e59f0010 	ldr	r0, [pc, #16]	; 9084 <uart_get8+0x2c>
    9070:	ebfffbed 	bl	802c <GET32>
    9074:	e6ef4070 	uxtb	r4, r0
    9078:	eb000158 	bl	95e0 <dev_barrier>
    907c:	e1a00004 	mov	r0, r4
    9080:	e8bd8010 	pop	{r4, pc}
    9084:	20215040 	.word	0x20215040

00009088 <uart_get8_async>:
    9088:	e92d4010 	push	{r4, lr}
    908c:	ebffffe8 	bl	9034 <uart_has_data>
    9090:	e3500000 	cmp	r0, #0, 0
    9094:	0a000001 	beq	90a0 <uart_get8_async+0x18>
    9098:	ebffffee 	bl	9058 <uart_get8>
    909c:	e8bd8010 	pop	{r4, pc}
    90a0:	e3e00000 	mvn	r0, #0, 0
    90a4:	e8bd8010 	pop	{r4, pc}

000090a8 <uart_tx_is_empty>:
    90a8:	e92d4010 	push	{r4, lr}
    90ac:	eb00014b 	bl	95e0 <dev_barrier>
    90b0:	e59f0018 	ldr	r0, [pc, #24]	; 90d0 <uart_tx_is_empty+0x28>
    90b4:	ebfffbdc 	bl	802c <GET32>
    90b8:	e3100040 	tst	r0, #64, 0	; 0x40
    90bc:	13a04001 	movne	r4, #1, 0
    90c0:	03a04000 	moveq	r4, #0, 0
    90c4:	eb000145 	bl	95e0 <dev_barrier>
    90c8:	e1a00004 	mov	r0, r4
    90cc:	e8bd8010 	pop	{r4, pc}
    90d0:	20215054 	.word	0x20215054

000090d4 <uart_flush_tx>:
    90d4:	e92d4010 	push	{r4, lr}
    90d8:	ebfffff2 	bl	90a8 <uart_tx_is_empty>
    90dc:	e3500000 	cmp	r0, #0, 0
    90e0:	18bd8010 	popne	{r4, pc}
    90e4:	eb000152 	bl	9634 <rpi_wait>
    90e8:	eafffffa 	b	90d8 <uart_flush_tx+0x4>

000090ec <uart_disable>:
    90ec:	e92d4010 	push	{r4, lr}
    90f0:	eb00013a 	bl	95e0 <dev_barrier>
    90f4:	ebfffff6 	bl	90d4 <uart_flush_tx>
    90f8:	e3a01000 	mov	r1, #0, 0
    90fc:	e59f0024 	ldr	r0, [pc, #36]	; 9128 <uart_disable+0x3c>
    9100:	ebfffbc7 	bl	8024 <PUT32>
    9104:	eb000135 	bl	95e0 <dev_barrier>
    9108:	e59f401c 	ldr	r4, [pc, #28]	; 912c <uart_disable+0x40>
    910c:	e1a00004 	mov	r0, r4
    9110:	ebfffbc5 	bl	802c <GET32>
    9114:	e3c01001 	bic	r1, r0, #1, 0
    9118:	e1a00004 	mov	r0, r4
    911c:	ebfffbc0 	bl	8024 <PUT32>
    9120:	eb00012e 	bl	95e0 <dev_barrier>
    9124:	e8bd8010 	pop	{r4, pc}
    9128:	20215060 	.word	0x20215060
    912c:	20215004 	.word	0x20215004

00009130 <printk>:
    9130:	e92d000f 	push	{r0, r1, r2, r3}
    9134:	e52de004 	push	{lr}		; (str lr, [sp, #-4]!)
    9138:	e24dd00c 	sub	sp, sp, #12, 0
    913c:	e28d1014 	add	r1, sp, #20, 0
    9140:	e58d1004 	str	r1, [sp, #4]
    9144:	e59d0010 	ldr	r0, [sp, #16]
    9148:	eb000047 	bl	926c <vprintk>
    914c:	e28dd00c 	add	sp, sp, #12, 0
    9150:	e49de004 	pop	{lr}		; (ldr lr, [sp], #4)
    9154:	e28dd010 	add	sp, sp, #16, 0
    9158:	e12fff1e 	bx	lr

0000915c <emit_val>:
    915c:	e92d4010 	push	{r4, lr}
    9160:	e24dd030 	sub	sp, sp, #48, 0	; 0x30
    9164:	e350000a 	cmp	r0, #10, 0
    9168:	0a000014 	beq	91c0 <emit_val+0x64>
    916c:	e3500010 	cmp	r0, #16, 0
    9170:	0a000022 	beq	9200 <emit_val+0xa4>
    9174:	e3500002 	cmp	r0, #2, 0
    9178:	0a000006 	beq	9198 <emit_val+0x3c>
    917c:	e58d0000 	str	r0, [sp]
    9180:	e3a0301b 	mov	r3, #27, 0
    9184:	e59f20c0 	ldr	r2, [pc, #192]	; 924c <emit_val+0xf0>
    9188:	e59f10c0 	ldr	r1, [pc, #192]	; 9250 <emit_val+0xf4>
    918c:	e59f00c0 	ldr	r0, [pc, #192]	; 9254 <emit_val+0xf8>
    9190:	ebffffe6 	bl	9130 <printk>
    9194:	eb0000f8 	bl	957c <clean_reboot>
    9198:	e28d400c 	add	r4, sp, #12, 0
    919c:	e2012001 	and	r2, r1, #1, 0
    91a0:	e59f00b0 	ldr	r0, [pc, #176]	; 9258 <emit_val+0xfc>
    91a4:	e7d02002 	ldrb	r2, [r0, r2]
    91a8:	e5c42000 	strb	r2, [r4]
    91ac:	e2844001 	add	r4, r4, #1, 0
    91b0:	e3510001 	cmp	r1, #1, 0
    91b4:	e1a010a1 	lsr	r1, r1, #1
    91b8:	8afffff7 	bhi	919c <emit_val+0x40>
    91bc:	ea00001d 	b	9238 <emit_val+0xdc>
    91c0:	e28d400c 	add	r4, sp, #12, 0
    91c4:	e59f3090 	ldr	r3, [pc, #144]	; 925c <emit_val+0x100>
    91c8:	e0832193 	umull	r2, r3, r3, r1
    91cc:	e1a031a3 	lsr	r3, r3, #3
    91d0:	e1a00003 	mov	r0, r3
    91d4:	e0833103 	add	r3, r3, r3, lsl #2
    91d8:	e0413083 	sub	r3, r1, r3, lsl #1
    91dc:	e59fc07c 	ldr	ip, [pc, #124]	; 9260 <emit_val+0x104>
    91e0:	e7dcc003 	ldrb	ip, [ip, r3]
    91e4:	e5c4c000 	strb	ip, [r4]
    91e8:	e2844001 	add	r4, r4, #1, 0
    91ec:	e1a03001 	mov	r3, r1
    91f0:	e1a01000 	mov	r1, r0
    91f4:	e3530009 	cmp	r3, #9, 0
    91f8:	8afffff1 	bhi	91c4 <emit_val+0x68>
    91fc:	ea00000d 	b	9238 <emit_val+0xdc>
    9200:	e28d400c 	add	r4, sp, #12, 0
    9204:	e201200f 	and	r2, r1, #15, 0
    9208:	e59f0054 	ldr	r0, [pc, #84]	; 9264 <emit_val+0x108>
    920c:	e7d02002 	ldrb	r2, [r0, r2]
    9210:	e5c42000 	strb	r2, [r4]
    9214:	e2844001 	add	r4, r4, #1, 0
    9218:	e351000f 	cmp	r1, #15, 0
    921c:	e1a01221 	lsr	r1, r1, #4
    9220:	8afffff7 	bhi	9204 <emit_val+0xa8>
    9224:	ea000003 	b	9238 <emit_val+0xdc>
    9228:	e59f3038 	ldr	r3, [pc, #56]	; 9268 <emit_val+0x10c>
    922c:	e5933000 	ldr	r3, [r3]
    9230:	e5740001 	ldrb	r0, [r4, #-1]!
    9234:	e12fff33 	blx	r3
    9238:	e28d300c 	add	r3, sp, #12, 0
    923c:	e1540003 	cmp	r4, r3
    9240:	8afffff8 	bhi	9228 <emit_val+0xcc>
    9244:	e28dd030 	add	sp, sp, #48, 0	; 0x30
    9248:	e8bd8010 	pop	{r4, pc}
    924c:	00009fc4 	.word	0x00009fc4
    9250:	00009f0c 	.word	0x00009f0c
    9254:	00009f1c 	.word	0x00009f1c
    9258:	00009f40 	.word	0x00009f40
    925c:	cccccccd 	.word	0xcccccccd
    9260:	00009f44 	.word	0x00009f44
    9264:	00009f50 	.word	0x00009f50
    9268:	0000a060 	.word	0x0000a060

0000926c <vprintk>:
    926c:	e92d4030 	push	{r4, r5, lr}
    9270:	e24dd014 	sub	sp, sp, #20, 0
    9274:	e1a04000 	mov	r4, r0
    9278:	e58d100c 	str	r1, [sp, #12]
    927c:	ea000003 	b	9290 <vprintk+0x24>
    9280:	e59f32b0 	ldr	r3, [pc, #688]	; 9538 <vprintk+0x2cc>
    9284:	e5933000 	ldr	r3, [r3]
    9288:	e12fff33 	blx	r3
    928c:	e2844001 	add	r4, r4, #1, 0
    9290:	e5d40000 	ldrb	r0, [r4]
    9294:	e3500000 	cmp	r0, #0, 0
    9298:	0a0000a4 	beq	9530 <vprintk+0x2c4>
    929c:	e3500025 	cmp	r0, #37, 0	; 0x25
    92a0:	1afffff6 	bne	9280 <vprintk+0x14>
    92a4:	e2845001 	add	r5, r4, #1, 0
    92a8:	e5d42001 	ldrb	r2, [r4, #1]
    92ac:	e2423058 	sub	r3, r2, #88, 0	; 0x58
    92b0:	e3530020 	cmp	r3, #32, 0
    92b4:	979ff103 	ldrls	pc, [pc, r3, lsl #2]
    92b8:	ea000095 	b	9514 <vprintk+0x2a8>
    92bc:	00009478 	.word	0x00009478
    92c0:	00009514 	.word	0x00009514
    92c4:	00009514 	.word	0x00009514
    92c8:	00009514 	.word	0x00009514
    92cc:	00009514 	.word	0x00009514
    92d0:	00009514 	.word	0x00009514
    92d4:	00009514 	.word	0x00009514
    92d8:	00009514 	.word	0x00009514
    92dc:	00009514 	.word	0x00009514
    92e0:	00009514 	.word	0x00009514
    92e4:	00009340 	.word	0x00009340
    92e8:	00009380 	.word	0x00009380
    92ec:	00009498 	.word	0x00009498
    92f0:	00009514 	.word	0x00009514
    92f4:	00009514 	.word	0x00009514
    92f8:	00009514 	.word	0x00009514
    92fc:	00009514 	.word	0x00009514
    9300:	00009514 	.word	0x00009514
    9304:	00009514 	.word	0x00009514
    9308:	00009514 	.word	0x00009514
    930c:	000093a4 	.word	0x000093a4
    9310:	00009514 	.word	0x00009514
    9314:	00009514 	.word	0x00009514
    9318:	00009514 	.word	0x00009514
    931c:	0000945c 	.word	0x0000945c
    9320:	00009514 	.word	0x00009514
    9324:	00009514 	.word	0x00009514
    9328:	000094dc 	.word	0x000094dc
    932c:	00009514 	.word	0x00009514
    9330:	00009360 	.word	0x00009360
    9334:	00009514 	.word	0x00009514
    9338:	00009514 	.word	0x00009514
    933c:	0000945c 	.word	0x0000945c
    9340:	e59d300c 	ldr	r3, [sp, #12]
    9344:	e2832004 	add	r2, r3, #4, 0
    9348:	e58d200c 	str	r2, [sp, #12]
    934c:	e5931000 	ldr	r1, [r3]
    9350:	e3a00002 	mov	r0, #2, 0
    9354:	ebffff80 	bl	915c <emit_val>
    9358:	e1a04005 	mov	r4, r5
    935c:	eaffffca 	b	928c <vprintk+0x20>
    9360:	e59d300c 	ldr	r3, [sp, #12]
    9364:	e2832004 	add	r2, r3, #4, 0
    9368:	e58d200c 	str	r2, [sp, #12]
    936c:	e5931000 	ldr	r1, [r3]
    9370:	e3a0000a 	mov	r0, #10, 0
    9374:	ebffff78 	bl	915c <emit_val>
    9378:	e1a04005 	mov	r4, r5
    937c:	eaffffc2 	b	928c <vprintk+0x20>
    9380:	e59f31b0 	ldr	r3, [pc, #432]	; 9538 <vprintk+0x2cc>
    9384:	e5932000 	ldr	r2, [r3]
    9388:	e59d300c 	ldr	r3, [sp, #12]
    938c:	e2831004 	add	r1, r3, #4, 0
    9390:	e58d100c 	str	r1, [sp, #12]
    9394:	e5930000 	ldr	r0, [r3]
    9398:	e12fff32 	blx	r2
    939c:	e1a04005 	mov	r4, r5
    93a0:	eaffffb9 	b	928c <vprintk+0x20>
    93a4:	e2842002 	add	r2, r4, #2, 0
    93a8:	e5d43002 	ldrb	r3, [r4, #2]
    93ac:	e353006c 	cmp	r3, #108, 0	; 0x6c
    93b0:	1a000018 	bne	9418 <vprintk+0x1ac>
    93b4:	e2845003 	add	r5, r4, #3, 0
    93b8:	e5d43003 	ldrb	r3, [r4, #3]
    93bc:	e3530078 	cmp	r3, #120, 0	; 0x78
    93c0:	1a00001b 	bne	9434 <vprintk+0x1c8>
    93c4:	e59f416c 	ldr	r4, [pc, #364]	; 9538 <vprintk+0x2cc>
    93c8:	e5943000 	ldr	r3, [r4]
    93cc:	e3a00030 	mov	r0, #48, 0	; 0x30
    93d0:	e12fff33 	blx	r3
    93d4:	e5943000 	ldr	r3, [r4]
    93d8:	e3a00078 	mov	r0, #120, 0	; 0x78
    93dc:	e12fff33 	blx	r3
    93e0:	e59d300c 	ldr	r3, [sp, #12]
    93e4:	e2833007 	add	r3, r3, #7, 0
    93e8:	e3c33007 	bic	r3, r3, #7, 0
    93ec:	e2832008 	add	r2, r3, #8, 0
    93f0:	e58d200c 	str	r2, [sp, #12]
    93f4:	e5934000 	ldr	r4, [r3]
    93f8:	e5931004 	ldr	r1, [r3, #4]
    93fc:	e3510000 	cmp	r1, #0, 0
    9400:	1a000012 	bne	9450 <vprintk+0x1e4>
    9404:	e1a01004 	mov	r1, r4
    9408:	e3a00010 	mov	r0, #16, 0
    940c:	ebffff52 	bl	915c <emit_val>
    9410:	e1a04005 	mov	r4, r5
    9414:	eaffff9c 	b	928c <vprintk+0x20>
    9418:	e58d2000 	str	r2, [sp]
    941c:	e3a0303b 	mov	r3, #59, 0	; 0x3b
    9420:	e59f2114 	ldr	r2, [pc, #276]	; 953c <vprintk+0x2d0>
    9424:	e59f1114 	ldr	r1, [pc, #276]	; 9540 <vprintk+0x2d4>
    9428:	e59f0114 	ldr	r0, [pc, #276]	; 9544 <vprintk+0x2d8>
    942c:	ebffff3f 	bl	9130 <printk>
    9430:	eb000051 	bl	957c <clean_reboot>
    9434:	e58d5000 	str	r5, [sp]
    9438:	e3a0303e 	mov	r3, #62, 0	; 0x3e
    943c:	e59f20f8 	ldr	r2, [pc, #248]	; 953c <vprintk+0x2d0>
    9440:	e59f10f8 	ldr	r1, [pc, #248]	; 9540 <vprintk+0x2d4>
    9444:	e59f00f8 	ldr	r0, [pc, #248]	; 9544 <vprintk+0x2d8>
    9448:	ebffff38 	bl	9130 <printk>
    944c:	eb00004a 	bl	957c <clean_reboot>
    9450:	e3a00010 	mov	r0, #16, 0
    9454:	ebffff40 	bl	915c <emit_val>
    9458:	eaffffe9 	b	9404 <vprintk+0x198>
    945c:	e59f40d4 	ldr	r4, [pc, #212]	; 9538 <vprintk+0x2cc>
    9460:	e5943000 	ldr	r3, [r4]
    9464:	e3a00030 	mov	r0, #48, 0	; 0x30
    9468:	e12fff33 	blx	r3
    946c:	e5943000 	ldr	r3, [r4]
    9470:	e3a00078 	mov	r0, #120, 0	; 0x78
    9474:	e12fff33 	blx	r3
    9478:	e59d300c 	ldr	r3, [sp, #12]
    947c:	e2832004 	add	r2, r3, #4, 0
    9480:	e58d200c 	str	r2, [sp, #12]
    9484:	e5931000 	ldr	r1, [r3]
    9488:	e3a00010 	mov	r0, #16, 0
    948c:	ebffff32 	bl	915c <emit_val>
    9490:	e1a04005 	mov	r4, r5
    9494:	eaffff7c 	b	928c <vprintk+0x20>
    9498:	e59d300c 	ldr	r3, [sp, #12]
    949c:	e2832004 	add	r2, r3, #4, 0
    94a0:	e58d200c 	str	r2, [sp, #12]
    94a4:	e5934000 	ldr	r4, [r3]
    94a8:	e3540000 	cmp	r4, #0, 0
    94ac:	ba000004 	blt	94c4 <vprintk+0x258>
    94b0:	e1a01004 	mov	r1, r4
    94b4:	e3a0000a 	mov	r0, #10, 0
    94b8:	ebffff27 	bl	915c <emit_val>
    94bc:	e1a04005 	mov	r4, r5
    94c0:	eaffff71 	b	928c <vprintk+0x20>
    94c4:	e59f306c 	ldr	r3, [pc, #108]	; 9538 <vprintk+0x2cc>
    94c8:	e5933000 	ldr	r3, [r3]
    94cc:	e3a0002d 	mov	r0, #45, 0	; 0x2d
    94d0:	e12fff33 	blx	r3
    94d4:	e2644000 	rsb	r4, r4, #0, 0
    94d8:	eafffff4 	b	94b0 <vprintk+0x244>
    94dc:	e59d300c 	ldr	r3, [sp, #12]
    94e0:	e2832004 	add	r2, r3, #4, 0
    94e4:	e58d200c 	str	r2, [sp, #12]
    94e8:	e5934000 	ldr	r4, [r3]
    94ec:	e5d40000 	ldrb	r0, [r4]
    94f0:	e3500000 	cmp	r0, #0, 0
    94f4:	0a000004 	beq	950c <vprintk+0x2a0>
    94f8:	e59f3038 	ldr	r3, [pc, #56]	; 9538 <vprintk+0x2cc>
    94fc:	e5933000 	ldr	r3, [r3]
    9500:	e12fff33 	blx	r3
    9504:	e2844001 	add	r4, r4, #1, 0
    9508:	eafffff7 	b	94ec <vprintk+0x280>
    950c:	e1a04005 	mov	r4, r5
    9510:	eaffff5d 	b	928c <vprintk+0x20>
    9514:	e58d2000 	str	r2, [sp]
    9518:	e3a03063 	mov	r3, #99, 0	; 0x63
    951c:	e59f2018 	ldr	r2, [pc, #24]	; 953c <vprintk+0x2d0>
    9520:	e59f1018 	ldr	r1, [pc, #24]	; 9540 <vprintk+0x2d4>
    9524:	e59f001c 	ldr	r0, [pc, #28]	; 9548 <vprintk+0x2dc>
    9528:	ebffff00 	bl	9130 <printk>
    952c:	eb000012 	bl	957c <clean_reboot>
    9530:	e28dd014 	add	sp, sp, #20, 0
    9534:	e8bd8030 	pop	{r4, r5, pc}
    9538:	0000a060 	.word	0x0000a060
    953c:	00009fd0 	.word	0x00009fd0
    9540:	00009f0c 	.word	0x00009f0c
    9544:	00009f64 	.word	0x00009f64
    9548:	00009f9c 	.word	0x00009f9c

0000954c <default_putchar>:
    954c:	e92d4010 	push	{r4, lr}
    9550:	e1a04000 	mov	r4, r0
    9554:	e6ef0070 	uxtb	r0, r0
    9558:	ebfffea8 	bl	9000 <uart_put8>
    955c:	e1a00004 	mov	r0, r4
    9560:	e8bd8010 	pop	{r4, pc}

00009564 <rpi_putchar_set>:
    9564:	e59f300c 	ldr	r3, [pc, #12]	; 9578 <rpi_putchar_set+0x14>
    9568:	e5932000 	ldr	r2, [r3]
    956c:	e5830000 	str	r0, [r3]
    9570:	e1a00002 	mov	r0, r2
    9574:	e12fff1e 	bx	lr
    9578:	0000a060 	.word	0x0000a060

0000957c <clean_reboot>:
    957c:	e92d4010 	push	{r4, lr}
    9580:	e59f0010 	ldr	r0, [pc, #16]	; 9598 <clean_reboot+0x1c>
    9584:	eb0000de 	bl	9904 <putk>
    9588:	ebfffed1 	bl	90d4 <uart_flush_tx>
    958c:	e3a0000a 	mov	r0, #10, 0
    9590:	eb00003d 	bl	968c <delay_ms>
    9594:	eb000017 	bl	95f8 <rpi_reboot>
    9598:	00009fd8 	.word	0x00009fd8

0000959c <program_end>:
    959c:	e59f0000 	ldr	r0, [pc]	; 95a4 <program_end+0x8>
    95a0:	e12fff1e 	bx	lr
    95a4:	0000a068 	.word	0x0000a068

000095a8 <_cstart>:
    95a8:	e92d4010 	push	{r4, lr}
    95ac:	e59f3024 	ldr	r3, [pc, #36]	; 95d8 <_cstart+0x30>
    95b0:	e59f2024 	ldr	r2, [pc, #36]	; 95dc <_cstart+0x34>
    95b4:	e1530002 	cmp	r3, r2
    95b8:	33a02000 	movcc	r2, #0, 0
    95bc:	34c32001 	strbcc	r2, [r3], #1
    95c0:	3afffffa 	bcc	95b0 <_cstart+0x8>
    95c4:	ebfffe53 	bl	8f18 <uart_init>
    95c8:	e3a03001 	mov	r3, #1, 0
    95cc:	ee0f3f1c 	mcr	15, 0, r3, cr15, cr12, {0}
    95d0:	ebfffa9c 	bl	8048 <notmain>
    95d4:	ebffffe8 	bl	957c <clean_reboot>
    95d8:	0000a064 	.word	0x0000a064
    95dc:	0000a068 	.word	0x0000a068

000095e0 <dev_barrier>:
    95e0:	ea000002 	b	95f0 <dsb>

000095e4 <dmb>:
    95e4:	e3a00000 	mov	r0, #0, 0
    95e8:	ee070fba 	mcr	15, 0, r0, cr7, cr10, {5}
    95ec:	e12fff1e 	bx	lr

000095f0 <dsb>:
    95f0:	ee070f9a 	mcr	15, 0, r0, cr7, cr10, {4}
    95f4:	e12fff1e 	bx	lr

000095f8 <rpi_reboot>:
    95f8:	e92d4010 	push	{r4, lr}
    95fc:	ebfffeb4 	bl	90d4 <uart_flush_tx>
    9600:	e3a0000a 	mov	r0, #10, 0
    9604:	eb000020 	bl	968c <delay_ms>
    9608:	e59f1014 	ldr	r1, [pc, #20]	; 9624 <rpi_reboot+0x2c>
    960c:	e59f0014 	ldr	r0, [pc, #20]	; 9628 <rpi_reboot+0x30>
    9610:	ebfffa83 	bl	8024 <PUT32>
    9614:	e59f1010 	ldr	r1, [pc, #16]	; 962c <rpi_reboot+0x34>
    9618:	e59f0010 	ldr	r0, [pc, #16]	; 9630 <rpi_reboot+0x38>
    961c:	ebfffa80 	bl	8024 <PUT32>
    9620:	eafffffe 	b	9620 <rpi_reboot+0x28>
    9624:	5a000001 	.word	0x5a000001
    9628:	20100024 	.word	0x20100024
    962c:	5a000020 	.word	0x5a000020
    9630:	2010001c 	.word	0x2010001c

00009634 <rpi_wait>:
    9634:	e12fff1e 	bx	lr

00009638 <timer_get_usec_raw>:
    9638:	e92d4010 	push	{r4, lr}
    963c:	e59f0004 	ldr	r0, [pc, #4]	; 9648 <timer_get_usec_raw+0x10>
    9640:	ebfffa79 	bl	802c <GET32>
    9644:	e8bd8010 	pop	{r4, pc}
    9648:	20003004 	.word	0x20003004

0000964c <timer_get_usec>:
    964c:	e92d4010 	push	{r4, lr}
    9650:	ebffffe2 	bl	95e0 <dev_barrier>
    9654:	ebfffff7 	bl	9638 <timer_get_usec_raw>
    9658:	e1a04000 	mov	r4, r0
    965c:	ebffffdf 	bl	95e0 <dev_barrier>
    9660:	e1a00004 	mov	r0, r4
    9664:	e8bd8010 	pop	{r4, pc}

00009668 <delay_us>:
    9668:	e92d4070 	push	{r4, r5, r6, lr}
    966c:	e1a05000 	mov	r5, r0
    9670:	ebfffff5 	bl	964c <timer_get_usec>
    9674:	e1a04000 	mov	r4, r0
    9678:	ebfffff3 	bl	964c <timer_get_usec>
    967c:	e0400004 	sub	r0, r0, r4
    9680:	e1500005 	cmp	r0, r5
    9684:	3afffffb 	bcc	9678 <delay_us+0x10>
    9688:	e8bd8070 	pop	{r4, r5, r6, pc}

0000968c <delay_ms>:
    968c:	e92d4010 	push	{r4, lr}
    9690:	e0603280 	rsb	r3, r0, r0, lsl #5
    9694:	e0800103 	add	r0, r0, r3, lsl #2
    9698:	e1a00180 	lsl	r0, r0, #3
    969c:	ebfffff1 	bl	9668 <delay_us>
    96a0:	e8bd8010 	pop	{r4, pc}

000096a4 <delay_sec>:
    96a4:	e92d4010 	push	{r4, lr}
    96a8:	e0603280 	rsb	r3, r0, r0, lsl #5
    96ac:	e0800103 	add	r0, r0, r3, lsl #2
    96b0:	e1a00180 	lsl	r0, r0, #3
    96b4:	ebfffff4 	bl	968c <delay_ms>
    96b8:	e8bd8010 	pop	{r4, pc}

000096bc <gpio_set_txpin>:
    96bc:	e92d4070 	push	{r4, r5, r6, lr}
    96c0:	e1a04000 	mov	r4, r0
    96c4:	e3500035 	cmp	r0, #53, 0	; 0x35
    96c8:	8a000010 	bhi	9710 <gpio_set_txpin+0x54>
    96cc:	e59f104c 	ldr	r1, [pc, #76]	; 9720 <gpio_set_txpin+0x64>
    96d0:	e0813491 	umull	r3, r1, r1, r4
    96d4:	e1a011a1 	lsr	r1, r1, #3
    96d8:	e0811101 	add	r1, r1, r1, lsl #2
    96dc:	e0441081 	sub	r1, r4, r1, lsl #1
    96e0:	e0814081 	add	r4, r1, r1, lsl #1
    96e4:	e3a00007 	mov	r0, #7, 0
    96e8:	e1a05410 	lsl	r5, r0, r4
    96ec:	e59f6030 	ldr	r6, [pc, #48]	; 9724 <gpio_set_txpin+0x68>
    96f0:	e1a00006 	mov	r0, r6
    96f4:	ebfffa4c 	bl	802c <GET32>
    96f8:	e1c00005 	bic	r0, r0, r5
    96fc:	e3a01004 	mov	r1, #4, 0
    9700:	e1801411 	orr	r1, r0, r1, lsl r4
    9704:	e1a00006 	mov	r0, r6
    9708:	ebfffa45 	bl	8024 <PUT32>
    970c:	e8bd8070 	pop	{r4, r5, r6, pc}
    9710:	e1a01000 	mov	r1, r0
    9714:	e59f000c 	ldr	r0, [pc, #12]	; 9728 <gpio_set_txpin+0x6c>
    9718:	eb000086 	bl	9938 <gpio_panic>
    971c:	eaffffea 	b	96cc <gpio_set_txpin+0x10>
    9720:	cccccccd 	.word	0xcccccccd
    9724:	20200004 	.word	0x20200004
    9728:	00009fe4 	.word	0x00009fe4

0000972c <gpio_set_on>:
    972c:	e92d4010 	push	{r4, lr}
    9730:	e1a04000 	mov	r4, r0
    9734:	e3500035 	cmp	r0, #53, 0	; 0x35
    9738:	8a000007 	bhi	975c <gpio_set_on+0x30>
    973c:	e204301f 	and	r3, r4, #31, 0
    9740:	e3a01001 	mov	r1, #1, 0
    9744:	e1a01311 	lsl	r1, r1, r3
    9748:	e354001f 	cmp	r4, #31, 0
    974c:	8a000006 	bhi	976c <gpio_set_on+0x40>
    9750:	e59f0020 	ldr	r0, [pc, #32]	; 9778 <gpio_set_on+0x4c>
    9754:	ebfffa32 	bl	8024 <PUT32>
    9758:	e8bd8010 	pop	{r4, pc}
    975c:	e1a01000 	mov	r1, r0
    9760:	e59f0014 	ldr	r0, [pc, #20]	; 977c <gpio_set_on+0x50>
    9764:	eb000073 	bl	9938 <gpio_panic>
    9768:	eafffff3 	b	973c <gpio_set_on+0x10>
    976c:	e59f000c 	ldr	r0, [pc, #12]	; 9780 <gpio_set_on+0x54>
    9770:	ebfffa2b 	bl	8024 <PUT32>
    9774:	e8bd8010 	pop	{r4, pc}
    9778:	2020001c 	.word	0x2020001c
    977c:	00009fe4 	.word	0x00009fe4
    9780:	20200020 	.word	0x20200020

00009784 <gpio_set_off>:
    9784:	e92d4010 	push	{r4, lr}
    9788:	e1a04000 	mov	r4, r0
    978c:	e3500035 	cmp	r0, #53, 0	; 0x35
    9790:	8a000007 	bhi	97b4 <gpio_set_off+0x30>
    9794:	e204301f 	and	r3, r4, #31, 0
    9798:	e3a01001 	mov	r1, #1, 0
    979c:	e1a01311 	lsl	r1, r1, r3
    97a0:	e354001f 	cmp	r4, #31, 0
    97a4:	8a000006 	bhi	97c4 <gpio_set_off+0x40>
    97a8:	e59f0020 	ldr	r0, [pc, #32]	; 97d0 <gpio_set_off+0x4c>
    97ac:	ebfffa1c 	bl	8024 <PUT32>
    97b0:	e8bd8010 	pop	{r4, pc}
    97b4:	e1a01000 	mov	r1, r0
    97b8:	e59f0014 	ldr	r0, [pc, #20]	; 97d4 <gpio_set_off+0x50>
    97bc:	eb00005d 	bl	9938 <gpio_panic>
    97c0:	eafffff3 	b	9794 <gpio_set_off+0x10>
    97c4:	e59f000c 	ldr	r0, [pc, #12]	; 97d8 <gpio_set_off+0x54>
    97c8:	ebfffa15 	bl	8024 <PUT32>
    97cc:	e8bd8010 	pop	{r4, pc}
    97d0:	20200028 	.word	0x20200028
    97d4:	00009fe4 	.word	0x00009fe4
    97d8:	2020002c 	.word	0x2020002c

000097dc <gpio_write>:
    97dc:	e92d4010 	push	{r4, lr}
    97e0:	e3510000 	cmp	r1, #0, 0
    97e4:	0a000001 	beq	97f0 <gpio_write+0x14>
    97e8:	ebffffcf 	bl	972c <gpio_set_on>
    97ec:	e8bd8010 	pop	{r4, pc}
    97f0:	ebffffe3 	bl	9784 <gpio_set_off>
    97f4:	e8bd8010 	pop	{r4, pc}

000097f8 <gpio_read>:
    97f8:	e92d4010 	push	{r4, lr}
    97fc:	e1a04000 	mov	r4, r0
    9800:	e3500035 	cmp	r0, #53, 0	; 0x35
    9804:	8a000007 	bhi	9828 <gpio_read+0x30>
    9808:	e354001f 	cmp	r4, #31, 0
    980c:	8a000009 	bhi	9838 <gpio_read+0x40>
    9810:	e59f002c 	ldr	r0, [pc, #44]	; 9844 <gpio_read+0x4c>
    9814:	ebfffa04 	bl	802c <GET32>
    9818:	e204401f 	and	r4, r4, #31, 0
    981c:	e1a00430 	lsr	r0, r0, r4
    9820:	e2000001 	and	r0, r0, #1, 0
    9824:	e8bd8010 	pop	{r4, pc}
    9828:	e1a01000 	mov	r1, r0
    982c:	e59f0014 	ldr	r0, [pc, #20]	; 9848 <gpio_read+0x50>
    9830:	eb000040 	bl	9938 <gpio_panic>
    9834:	eafffff3 	b	9808 <gpio_read+0x10>
    9838:	e59f000c 	ldr	r0, [pc, #12]	; 984c <gpio_read+0x54>
    983c:	ebfff9fa 	bl	802c <GET32>
    9840:	eafffff4 	b	9818 <gpio_read+0x20>
    9844:	20200034 	.word	0x20200034
    9848:	00009fe4 	.word	0x00009fe4
    984c:	20200038 	.word	0x20200038

00009850 <gpio_set_function>:
    9850:	e92d41f0 	push	{r4, r5, r6, r7, r8, lr}
    9854:	e1a04000 	mov	r4, r0
    9858:	e1a06001 	mov	r6, r1
    985c:	e3500035 	cmp	r0, #53, 0	; 0x35
    9860:	8a000014 	bhi	98b8 <gpio_set_function+0x68>
    9864:	e3d63007 	bics	r3, r6, #7, 0
    9868:	1a000016 	bne	98c8 <gpio_set_function+0x78>
    986c:	e59f3064 	ldr	r3, [pc, #100]	; 98d8 <gpio_set_function+0x88>
    9870:	e0832493 	umull	r2, r3, r3, r4
    9874:	e1a031a3 	lsr	r3, r3, #3
    9878:	e1a02003 	mov	r2, r3
    987c:	e0833103 	add	r3, r3, r3, lsl #2
    9880:	e0443083 	sub	r3, r4, r3, lsl #1
    9884:	e0834083 	add	r4, r3, r3, lsl #1
    9888:	e3a01007 	mov	r1, #7, 0
    988c:	e1a07411 	lsl	r7, r1, r4
    9890:	e2820302 	add	r0, r2, #134217728	; 0x8000000
    9894:	e2800702 	add	r0, r0, #524288	; 0x80000
    9898:	e1a05100 	lsl	r5, r0, #2
    989c:	e1a00005 	mov	r0, r5
    98a0:	ebfff9e1 	bl	802c <GET32>
    98a4:	e1c01007 	bic	r1, r0, r7
    98a8:	e1811416 	orr	r1, r1, r6, lsl r4
    98ac:	e1a00005 	mov	r0, r5
    98b0:	ebfff9db 	bl	8024 <PUT32>
    98b4:	e8bd81f0 	pop	{r4, r5, r6, r7, r8, pc}
    98b8:	e1a01000 	mov	r1, r0
    98bc:	e59f0018 	ldr	r0, [pc, #24]	; 98dc <gpio_set_function+0x8c>
    98c0:	eb00001c 	bl	9938 <gpio_panic>
    98c4:	eaffffe6 	b	9864 <gpio_set_function+0x14>
    98c8:	e1a01006 	mov	r1, r6
    98cc:	e59f000c 	ldr	r0, [pc, #12]	; 98e0 <gpio_set_function+0x90>
    98d0:	eb000018 	bl	9938 <gpio_panic>
    98d4:	eaffffe4 	b	986c <gpio_set_function+0x1c>
    98d8:	cccccccd 	.word	0xcccccccd
    98dc:	00009fe4 	.word	0x00009fe4
    98e0:	00009ff4 	.word	0x00009ff4

000098e4 <gpio_set_output>:
    98e4:	e92d4010 	push	{r4, lr}
    98e8:	e3a01001 	mov	r1, #1, 0
    98ec:	ebffffd7 	bl	9850 <gpio_set_function>
    98f0:	e8bd8010 	pop	{r4, pc}

000098f4 <gpio_set_input>:
    98f4:	e92d4010 	push	{r4, lr}
    98f8:	e3a01000 	mov	r1, #0, 0
    98fc:	ebffffd3 	bl	9850 <gpio_set_function>
    9900:	e8bd8010 	pop	{r4, pc}

00009904 <putk>:
    9904:	e92d4010 	push	{r4, lr}
    9908:	e1a04000 	mov	r4, r0
    990c:	e5d40000 	ldrb	r0, [r4]
    9910:	e3500000 	cmp	r0, #0, 0
    9914:	0a000004 	beq	992c <putk+0x28>
    9918:	e59f3014 	ldr	r3, [pc, #20]	; 9934 <putk+0x30>
    991c:	e5933000 	ldr	r3, [r3]
    9920:	e12fff33 	blx	r3
    9924:	e2844001 	add	r4, r4, #1, 0
    9928:	eafffff7 	b	990c <putk+0x8>
    992c:	e3a00001 	mov	r0, #1, 0
    9930:	e8bd8010 	pop	{r4, pc}
    9934:	0000a060 	.word	0x0000a060

00009938 <gpio_panic>:
    9938:	e92d000f 	push	{r0, r1, r2, r3}
    993c:	e92d4010 	push	{r4, lr}
    9940:	e3a03005 	mov	r3, #5, 0
    9944:	e59f200c 	ldr	r2, [pc, #12]	; 9958 <gpio_panic+0x20>
    9948:	e59f100c 	ldr	r1, [pc, #12]	; 995c <gpio_panic+0x24>
    994c:	e59f000c 	ldr	r0, [pc, #12]	; 9960 <gpio_panic+0x28>
    9950:	ebfffdf6 	bl	9130 <printk>
    9954:	ebffff08 	bl	957c <clean_reboot>
    9958:	0000a048 	.word	0x0000a048
    995c:	0000a008 	.word	0x0000a008
    9960:	0000a024 	.word	0x0000a024

00009964 <__code_end__>:
    9964:	00000000 	.word	0x00000000
