
objs/l1/l2/l3//2-simple-save-test.elf:     file format elf32-littlearm


Disassembly of section .text:

00008000 <__code_start__>:
    8000:	e3a00013 	mov	r0, #19, 0
    8004:	e3800080 	orr	r0, r0, #128, 0	; 0x80
    8008:	e129f000 	msr	CPSR_fc, r0
    800c:	e3a01000 	mov	r1, #0, 0
    8010:	ee071f95 	mcr	15, 0, r1, cr7, cr5, {4}
    8014:	e3a0d302 	mov	sp, #134217728	; 0x8000000
    8018:	e3a0b000 	mov	fp, #0, 0
    801c:	eb00048d 	bl	9258 <_cstart>
    8020:	eb00049a 	bl	9290 <rpi_reboot>

00008024 <PUT32>:
    8024:	e5801000 	str	r1, [r0]
    8028:	e12fff1e 	bx	lr

0000802c <GET32>:
    802c:	e5900000 	ldr	r0, [r0]
    8030:	e12fff1e 	bx	lr

00008034 <BRANCHTO>:
    8034:	e12fff10 	bx	r0

00008038 <regs_init_ident>:
    8038:	e3a00000 	mov	r0, #0, 0
    803c:	e3a01001 	mov	r1, #1, 0
    8040:	e3a02002 	mov	r2, #2, 0
    8044:	e3a03003 	mov	r3, #3, 0
    8048:	e3a04004 	mov	r4, #4, 0
    804c:	e3a05005 	mov	r5, #5, 0
    8050:	e3a06006 	mov	r6, #6, 0
    8054:	e3a07007 	mov	r7, #7, 0
    8058:	e3a08008 	mov	r8, #8, 0
    805c:	e3a09009 	mov	r9, #9, 0
    8060:	e3a0a00a 	mov	sl, #10, 0
    8064:	e3a0b00b 	mov	fp, #11, 0
    8068:	e3a0c00c 	mov	ip, #12, 0
    806c:	e3a0d00d 	mov	sp, #13, 0
    8070:	e3a0e00e 	mov	lr, #14, 0
    8074:	ef000001 	svc	0x00000001

00008078 <regs_init_ident_swi_pc>:
    8078:	e3a0d409 	mov	sp, #150994944	; 0x9000000
    807c:	e24f0004 	sub	r0, pc, #4, 0
    8080:	e28f1000 	add	r1, pc, #0, 0
    8084:	ea000441 	b	9190 <asm_not_reached_helper>
    8088:	72617473 	.word	0x72617473
    808c:	3a532e74 	.word	0x3a532e74
    8090:	3c3a3439 	.word	0x3c3a3439
    8094:	20544f4e 	.word	0x20544f4e
    8098:	43414552 	.word	0x43414552
    809c:	3e444548 	.word	0x3e444548
    80a0:	00          	.byte	0x00
    80a1:	00          	.byte	0x00
	...

000080a4 <mode_get>:
    80a4:	e200001f 	and	r0, r0, #31, 0
    80a8:	e3500012 	cmp	r0, #18, 0
    80ac:	13500010 	cmpne	r0, #16, 0
    80b0:	012fff1e 	bxeq	lr
    80b4:	e3500017 	cmp	r0, #23, 0
    80b8:	13500013 	cmpne	r0, #19, 0
    80bc:	012fff1e 	bxeq	lr
    80c0:	e3500011 	cmp	r0, #17, 0
    80c4:	1350001b 	cmpne	r0, #27, 0
    80c8:	012fff1e 	bxeq	lr
    80cc:	e350001f 	cmp	r0, #31, 0
    80d0:	012fff1e 	bxeq	lr
    80d4:	e52de004 	push	{lr}		; (str lr, [sp, #-4]!)
    80d8:	e24dd00c 	sub	sp, sp, #12, 0
    80dc:	e58d0004 	str	r0, [sp, #4]
    80e0:	e58d0000 	str	r0, [sp]
    80e4:	e3a03014 	mov	r3, #20, 0
    80e8:	e59f200c 	ldr	r2, [pc, #12]	; 80fc <mode_get+0x58>
    80ec:	e59f100c 	ldr	r1, [pc, #12]	; 8100 <mode_get+0x5c>
    80f0:	e59f000c 	ldr	r0, [pc, #12]	; 8104 <mode_get+0x60>
    80f4:	eb000312 	bl	8d44 <printk>
    80f8:	eb00044b 	bl	922c <clean_reboot>
    80fc:	00009cfc 	.word	0x00009cfc
    8100:	00009a78 	.word	0x00009a78
    8104:	00009ab4 	.word	0x00009ab4

00008108 <syscall_handler>:
    8108:	e92d4070 	push	{r4, r5, r6, lr}
    810c:	e24dd008 	sub	sp, sp, #8, 0
    8110:	e1a05000 	mov	r5, r0
    8114:	e10f0000 	mrs	r0, CPSR
    8118:	ebffffe1 	bl	80a4 <mode_get>
    811c:	e1a04000 	mov	r4, r0
    8120:	e3500013 	cmp	r0, #19, 0
    8124:	0a000008 	beq	814c <syscall_handler+0x44>
    8128:	e58d0004 	str	r0, [sp, #4]
    812c:	e3a03013 	mov	r3, #19, 0
    8130:	e58d3000 	str	r3, [sp]
    8134:	e3a0303d 	mov	r3, #61, 0	; 0x3d
    8138:	e59f2128 	ldr	r2, [pc, #296]	; 8268 <syscall_handler+0x160>
    813c:	e59f1128 	ldr	r1, [pc, #296]	; 826c <syscall_handler+0x164>
    8140:	e59f0128 	ldr	r0, [pc, #296]	; 8270 <syscall_handler+0x168>
    8144:	eb0002fe 	bl	8d44 <printk>
    8148:	eb000437 	bl	922c <clean_reboot>
    814c:	e14f6000 	mrs	r6, SPSR
    8150:	e1a00006 	mov	r0, r6
    8154:	ebffffd2 	bl	80a4 <mode_get>
    8158:	e3500010 	cmp	r0, #16, 0
    815c:	1a00000c 	bne	8194 <syscall_handler+0x8c>
    8160:	e3a04000 	mov	r4, #0, 0
    8164:	e354000e 	cmp	r4, #14, 0
    8168:	ca00001a 	bgt	81d8 <syscall_handler+0xd0>
    816c:	e7953104 	ldr	r3, [r5, r4, lsl #2]
    8170:	e1a02004 	mov	r2, r4
    8174:	e59f10ec 	ldr	r1, [pc, #236]	; 8268 <syscall_handler+0x160>
    8178:	e59f00f4 	ldr	r0, [pc, #244]	; 8274 <syscall_handler+0x16c>
    817c:	eb0002f0 	bl	8d44 <printk>
    8180:	e7953104 	ldr	r3, [r5, r4, lsl #2]
    8184:	e1540003 	cmp	r4, r3
    8188:	1a00000a 	bne	81b8 <syscall_handler+0xb0>
    818c:	e2844001 	add	r4, r4, #1, 0
    8190:	eafffff3 	b	8164 <syscall_handler+0x5c>
    8194:	e58d4004 	str	r4, [sp, #4]
    8198:	e3a03010 	mov	r3, #16, 0
    819c:	e58d3000 	str	r3, [sp]
    81a0:	e3a03045 	mov	r3, #69, 0	; 0x45
    81a4:	e59f20bc 	ldr	r2, [pc, #188]	; 8268 <syscall_handler+0x160>
    81a8:	e59f10bc 	ldr	r1, [pc, #188]	; 826c <syscall_handler+0x164>
    81ac:	e59f00bc 	ldr	r0, [pc, #188]	; 8270 <syscall_handler+0x168>
    81b0:	eb0002e3 	bl	8d44 <printk>
    81b4:	eb00041c 	bl	922c <clean_reboot>
    81b8:	e59f30b8 	ldr	r3, [pc, #184]	; 8278 <syscall_handler+0x170>
    81bc:	e58d3000 	str	r3, [sp]
    81c0:	e3a0304c 	mov	r3, #76, 0	; 0x4c
    81c4:	e59f209c 	ldr	r2, [pc, #156]	; 8268 <syscall_handler+0x160>
    81c8:	e59f109c 	ldr	r1, [pc, #156]	; 826c <syscall_handler+0x164>
    81cc:	e59f00a8 	ldr	r0, [pc, #168]	; 827c <syscall_handler+0x174>
    81d0:	eb0002db 	bl	8d44 <printk>
    81d4:	eb000414 	bl	922c <clean_reboot>
    81d8:	e59f4088 	ldr	r4, [pc, #136]	; 8268 <syscall_handler+0x160>
    81dc:	e595203c 	ldr	r2, [r5, #60]	; 0x3c
    81e0:	e1a01004 	mov	r1, r4
    81e4:	e59f0094 	ldr	r0, [pc, #148]	; 8280 <syscall_handler+0x178>
    81e8:	eb0002d5 	bl	8d44 <printk>
    81ec:	e5952040 	ldr	r2, [r5, #64]	; 0x40
    81f0:	e1a01004 	mov	r1, r4
    81f4:	e59f0088 	ldr	r0, [pc, #136]	; 8284 <syscall_handler+0x17c>
    81f8:	eb0002d1 	bl	8d44 <printk>
    81fc:	e59f3084 	ldr	r3, [pc, #132]	; 8288 <syscall_handler+0x180>
    8200:	e595203c 	ldr	r2, [r5, #60]	; 0x3c
    8204:	e1530002 	cmp	r3, r2
    8208:	1a00000a 	bne	8238 <syscall_handler+0x130>
    820c:	e5953040 	ldr	r3, [r5, #64]	; 0x40
    8210:	e1530006 	cmp	r3, r6
    8214:	0a00000f 	beq	8258 <syscall_handler+0x150>
    8218:	e58d3004 	str	r3, [sp, #4]
    821c:	e58d6000 	str	r6, [sp]
    8220:	e3a0305b 	mov	r3, #91, 0	; 0x5b
    8224:	e59f203c 	ldr	r2, [pc, #60]	; 8268 <syscall_handler+0x160>
    8228:	e59f103c 	ldr	r1, [pc, #60]	; 826c <syscall_handler+0x164>
    822c:	e59f0058 	ldr	r0, [pc, #88]	; 828c <syscall_handler+0x184>
    8230:	eb0002c3 	bl	8d44 <printk>
    8234:	eb0003fc 	bl	922c <clean_reboot>
    8238:	e58d2004 	str	r2, [sp, #4]
    823c:	e58d3000 	str	r3, [sp]
    8240:	e3a03057 	mov	r3, #87, 0	; 0x57
    8244:	e1a02004 	mov	r2, r4
    8248:	e59f101c 	ldr	r1, [pc, #28]	; 826c <syscall_handler+0x164>
    824c:	e59f003c 	ldr	r0, [pc, #60]	; 8290 <syscall_handler+0x188>
    8250:	eb0002bb 	bl	8d44 <printk>
    8254:	eb0003f4 	bl	922c <clean_reboot>
    8258:	e59f1008 	ldr	r1, [pc, #8]	; 8268 <syscall_handler+0x160>
    825c:	e59f0030 	ldr	r0, [pc, #48]	; 8294 <syscall_handler+0x18c>
    8260:	eb0002b7 	bl	8d44 <printk>
    8264:	eb0003f0 	bl	922c <clean_reboot>
    8268:	00009d08 	.word	0x00009d08
    826c:	00009ae0 	.word	0x00009ae0
    8270:	00009af8 	.word	0x00009af8
    8274:	00009b24 	.word	0x00009b24
    8278:	00009b6c 	.word	0x00009b6c
    827c:	00009b3c 	.word	0x00009b3c
    8280:	00009b7c 	.word	0x00009b7c
    8284:	00009b94 	.word	0x00009b94
    8288:	00008078 	.word	0x00008078
    828c:	00009bd8 	.word	0x00009bd8
    8290:	00009bac 	.word	0x00009bac
    8294:	00009c14 	.word	0x00009c14

00008298 <notmain>:
    8298:	e52de004 	push	{lr}		; (str lr, [sp, #-4]!)
    829c:	e24dd014 	sub	sp, sp, #20, 0
    82a0:	ee1c3f10 	mrc	15, 0, r3, cr12, cr0, {0}
    82a4:	e59f20c0 	ldr	r2, [pc, #192]	; 836c <notmain+0xd4>
    82a8:	e1530002 	cmp	r3, r2
    82ac:	0a00000b 	beq	82e0 <notmain+0x48>
    82b0:	e3530000 	cmp	r3, #0, 0
    82b4:	1a000015 	bne	8310 <notmain+0x78>
    82b8:	e59f30ac 	ldr	r3, [pc, #172]	; 836c <notmain+0xd4>
    82bc:	e313001f 	tst	r3, #31, 0
    82c0:	1a000019 	bne	832c <notmain+0x94>
    82c4:	ee1c2f10 	mrc	15, 0, r2, cr12, cr0, {0}
    82c8:	e3a02000 	mov	r2, #0, 0
    82cc:	ee072f95 	mcr	15, 0, r2, cr7, cr5, {4}
    82d0:	ee0c3f10 	mcr	15, 0, r3, cr12, cr0, {0}
    82d4:	ee1c2f10 	mrc	15, 0, r2, cr12, cr0, {0}
    82d8:	e1520003 	cmp	r2, r3
    82dc:	1a00001a 	bne	834c <notmain+0xb4>
    82e0:	e59f3088 	ldr	r3, [pc, #136]	; 8370 <notmain+0xd8>
    82e4:	e58d3008 	str	r3, [sp, #8]
    82e8:	e3a03010 	mov	r3, #16, 0
    82ec:	e58d300c 	str	r3, [sp, #12]
    82f0:	e28d0008 	add	r0, sp, #8, 0
    82f4:	eb00003f 	bl	83f8 <rfe_asm>
    82f8:	e3a03073 	mov	r3, #115, 0	; 0x73
    82fc:	e59f2070 	ldr	r2, [pc, #112]	; 8374 <notmain+0xdc>
    8300:	e59f1070 	ldr	r1, [pc, #112]	; 8378 <notmain+0xe0>
    8304:	e59f0070 	ldr	r0, [pc, #112]	; 837c <notmain+0xe4>
    8308:	eb00028d 	bl	8d44 <printk>
    830c:	eb0003c6 	bl	922c <clean_reboot>
    8310:	e58d3000 	str	r3, [sp]
    8314:	e3a0305a 	mov	r3, #90, 0	; 0x5a
    8318:	e59f2060 	ldr	r2, [pc, #96]	; 8380 <notmain+0xe8>
    831c:	e59f1060 	ldr	r1, [pc, #96]	; 8384 <notmain+0xec>
    8320:	e59f0060 	ldr	r0, [pc, #96]	; 8388 <notmain+0xf0>
    8324:	eb000286 	bl	8d44 <printk>
    8328:	eb0003bf 	bl	922c <clean_reboot>
    832c:	e59f3038 	ldr	r3, [pc, #56]	; 836c <notmain+0xd4>
    8330:	e58d3000 	str	r3, [sp]
    8334:	e3a03042 	mov	r3, #66, 0	; 0x42
    8338:	e59f204c 	ldr	r2, [pc, #76]	; 838c <notmain+0xf4>
    833c:	e59f1040 	ldr	r1, [pc, #64]	; 8384 <notmain+0xec>
    8340:	e59f0048 	ldr	r0, [pc, #72]	; 8390 <notmain+0xf8>
    8344:	eb00027e 	bl	8d44 <printk>
    8348:	eb0003b7 	bl	922c <clean_reboot>
    834c:	e59f3040 	ldr	r3, [pc, #64]	; 8394 <notmain+0xfc>
    8350:	e58d3000 	str	r3, [sp]
    8354:	e3a0304d 	mov	r3, #77, 0	; 0x4d
    8358:	e59f202c 	ldr	r2, [pc, #44]	; 838c <notmain+0xf4>
    835c:	e59f1020 	ldr	r1, [pc, #32]	; 8384 <notmain+0xec>
    8360:	e59f0030 	ldr	r0, [pc, #48]	; 8398 <notmain+0x100>
    8364:	eb000276 	bl	8d44 <printk>
    8368:	eb0003af 	bl	922c <clean_reboot>
    836c:	00008440 	.word	0x00008440
    8370:	00008038 	.word	0x00008038
    8374:	00009d3c 	.word	0x00009d3c
    8378:	00009ae0 	.word	0x00009ae0
    837c:	00009cdc 	.word	0x00009cdc
    8380:	00009d18 	.word	0x00009d18
    8384:	00009c28 	.word	0x00009c28
    8388:	00009c60 	.word	0x00009c60
    838c:	00009d28 	.word	0x00009d28
    8390:	00009c98 	.word	0x00009c98
    8394:	00009cc0 	.word	0x00009cc0
    8398:	00009b3c 	.word	0x00009b3c
    839c:	00000000 	.word	0x00000000

000083a0 <syscall_reg_save>:
    83a0:	e28dd004 	add	sp, sp, #4, 0
    83a4:	e8cd7fff 	stmia	sp, {r0, r1, r2, r3, r4, r5, r6, r7, r8, r9, sl, fp, ip, sp, lr}^
    83a8:	e1a0000e 	mov	r0, lr
    83ac:	e14f1000 	mrs	r1, SPSR
    83b0:	e1a0e00d 	mov	lr, sp
    83b4:	e28ee03c 	add	lr, lr, #60, 0	; 0x3c
    83b8:	e88e0003 	stm	lr, {r0, r1}
    83bc:	e1a0000d 	mov	r0, sp
    83c0:	eaffff50 	b	8108 <syscall_handler>
    83c4:	e3a0d409 	mov	sp, #150994944	; 0x9000000
    83c8:	e24f0004 	sub	r0, pc, #4, 0
    83cc:	e28f1000 	add	r1, pc, #0, 0
    83d0:	ea00036e 	b	9190 <asm_not_reached_helper>
    83d4:	65746e69 	.word	0x65746e69
    83d8:	70757272 	.word	0x70757272
    83dc:	73612d74 	.word	0x73612d74
    83e0:	3a532e6d 	.word	0x3a532e6d
    83e4:	3c3a3931 	.word	0x3c3a3931
    83e8:	20544f4e 	.word	0x20544f4e
    83ec:	43414552 	.word	0x43414552
    83f0:	3e444548 	.word	0x3e444548
    83f4:	00          	.byte	0x00
    83f5:	00          	.byte	0x00
	...

000083f8 <rfe_asm>:
    83f8:	e1a0d000 	mov	sp, r0
    83fc:	f89d0a00 	rfeia	sp
    8400:	e3a0d409 	mov	sp, #150994944	; 0x9000000
    8404:	e24f0004 	sub	r0, pc, #4, 0
    8408:	e28f1000 	add	r1, pc, #0, 0
    840c:	ea00035f 	b	9190 <asm_not_reached_helper>
    8410:	65746e69 	.word	0x65746e69
    8414:	70757272 	.word	0x70757272
    8418:	73612d74 	.word	0x73612d74
    841c:	3a532e6d 	.word	0x3a532e6d
    8420:	3c3a3632 	.word	0x3c3a3632
    8424:	20544f4e 	.word	0x20544f4e
    8428:	43414552 	.word	0x43414552
    842c:	3e444548 	.word	0x3e444548
    8430:	00          	.byte	0x00
    8431:	00          	.byte	0x00
    8432:	0000      	.short	0x0000
    8434:	e320f000 	nop	{0}
    8438:	e320f000 	nop	{0}
    843c:	e320f000 	nop	{0}

00008440 <syscall_reg_save_vec>:
    8440:	ea0003c2 	b	9350 <unhandled_reset>
    8444:	ea0003c8 	b	936c <unhandled_undefined_instruction>
    8448:	eaffffd4 	b	83a0 <syscall_reg_save>
    844c:	ea0003cd 	b	9388 <unhandled_prefetch_abort>
    8450:	ea0003d3 	b	93a4 <unhandled_data_abort>
    8454:	ea0003d9 	b	93c0 <unhandled_interrupt>
    8458:	e3a0d409 	mov	sp, #150994944	; 0x9000000
    845c:	e24f0004 	sub	r0, pc, #4, 0
    8460:	e28f1000 	add	r1, pc, #0, 0
    8464:	ea000349 	b	9190 <asm_not_reached_helper>
    8468:	65746e69 	.word	0x65746e69
    846c:	70757272 	.word	0x70757272
    8470:	73612d74 	.word	0x73612d74
    8474:	3a532e6d 	.word	0x3a532e6d
    8478:	3c3a3833 	.word	0x3c3a3833
    847c:	20544f4e 	.word	0x20544f4e
    8480:	43414552 	.word	0x43414552
    8484:	3e444548 	.word	0x3e444548
    8488:	00          	.byte	0x00
    8489:	00          	.byte	0x00
	...

0000848c <prefetch_reg_save>:
    848c:	e3a0d409 	mov	sp, #150994944	; 0x9000000
    8490:	e24ee004 	sub	lr, lr, #4, 0
    8494:	e8cd7fff 	stmia	sp, {r0, r1, r2, r3, r4, r5, r6, r7, r8, r9, sl, fp, ip, sp, lr}^
    8498:	e1a0000e 	mov	r0, lr
    849c:	e14f1000 	mrs	r1, SPSR
    84a0:	e1a0c00d 	mov	ip, sp
    84a4:	e28cc03c 	add	ip, ip, #60, 0	; 0x3c
    84a8:	e88c0003 	stm	ip, {r0, r1}
    84ac:	e1a0000d 	mov	r0, sp
    84b0:	ea000032 	b	8580 <prefetch_abort_handler>
    84b4:	e3a0d409 	mov	sp, #150994944	; 0x9000000
    84b8:	e24f0004 	sub	r0, pc, #4, 0
    84bc:	e28f1000 	add	r1, pc, #0, 0
    84c0:	ea000332 	b	9190 <asm_not_reached_helper>
    84c4:	65746e69 	.word	0x65746e69
    84c8:	70757272 	.word	0x70757272
    84cc:	73612d74 	.word	0x73612d74
    84d0:	3a532e6d 	.word	0x3a532e6d
    84d4:	3c3a3735 	.word	0x3c3a3735
    84d8:	20544f4e 	.word	0x20544f4e
    84dc:	43414552 	.word	0x43414552
    84e0:	3e444548 	.word	0x3e444548
    84e4:	00          	.byte	0x00
    84e5:	00          	.byte	0x00
    84e6:	0000      	.short	0x0000
    84e8:	e320f000 	nop	{0}
    84ec:	e320f000 	nop	{0}
    84f0:	e320f000 	nop	{0}
    84f4:	e320f000 	nop	{0}
    84f8:	e320f000 	nop	{0}
    84fc:	e320f000 	nop	{0}

00008500 <simple_reg_save_restore_vec>:
    8500:	ea000392 	b	9350 <unhandled_reset>
    8504:	ea000398 	b	936c <unhandled_undefined_instruction>
    8508:	ea0003b3 	b	93dc <unhandled_swi>
    850c:	eaffffde 	b	848c <prefetch_reg_save>
    8510:	ea0003a3 	b	93a4 <unhandled_data_abort>
    8514:	ea0003a9 	b	93c0 <unhandled_interrupt>
    8518:	e3a0d409 	mov	sp, #150994944	; 0x9000000
    851c:	e24f0004 	sub	r0, pc, #4, 0
    8520:	e28f1000 	add	r1, pc, #0, 0
    8524:	ea000319 	b	9190 <asm_not_reached_helper>
    8528:	65746e69 	.word	0x65746e69
    852c:	70757272 	.word	0x70757272
    8530:	73612d74 	.word	0x73612d74
    8534:	3a532e6d 	.word	0x3a532e6d
    8538:	3c3a3836 	.word	0x3c3a3836
    853c:	20544f4e 	.word	0x20544f4e
    8540:	43414552 	.word	0x43414552
    8544:	3e444548 	.word	0x3e444548
    8548:	00          	.byte	0x00
    8549:	00          	.byte	0x00
    854a:	0000      	.short	0x0000
    854c:	e3a0d409 	mov	sp, #150994944	; 0x9000000
    8550:	e24f0004 	sub	r0, pc, #4, 0
    8554:	e28f1000 	add	r1, pc, #0, 0
    8558:	ea00030c 	b	9190 <asm_not_reached_helper>
    855c:	65746e69 	.word	0x65746e69
    8560:	70757272 	.word	0x70757272
    8564:	73612d74 	.word	0x73612d74
    8568:	3a532e6d 	.word	0x3a532e6d
    856c:	3c3a3637 	.word	0x3c3a3637
    8570:	20544f4e 	.word	0x20544f4e
    8574:	43414552 	.word	0x43414552
    8578:	3e444548 	.word	0x3e444548
    857c:	00          	.byte	0x00
    857d:	00          	.byte	0x00
	...

00008580 <prefetch_abort_handler>:
    8580:	e3a0d409 	mov	sp, #150994944	; 0x9000000
    8584:	e24f0004 	sub	r0, pc, #4, 0
    8588:	e28f1000 	add	r1, pc, #0, 0
    858c:	ea0002ff 	b	9190 <asm_not_reached_helper>
    8590:	65746e69 	.word	0x65746e69
    8594:	70757272 	.word	0x70757272
    8598:	73612d74 	.word	0x73612d74
    859c:	3a532e6d 	.word	0x3a532e6d
    85a0:	3c3a3138 	.word	0x3c3a3138
    85a4:	20544f4e 	.word	0x20544f4e
    85a8:	43414552 	.word	0x43414552
    85ac:	3e444548 	.word	0x3e444548
    85b0:	00          	.byte	0x00
    85b1:	00          	.byte	0x00
	...

000085b4 <switchto_user_asm>:
    85b4:	e1a0d000 	mov	sp, r0
    85b8:	e8d07fff 	ldm	r0, {r0, r1, r2, r3, r4, r5, r6, r7, r8, r9, sl, fp, ip, sp, lr}^
    85bc:	e28dd03c 	add	sp, sp, #60, 0	; 0x3c
    85c0:	f89d0a00 	rfeia	sp

000085c4 <switchto_priv_asm>:
    85c4:	e5901040 	ldr	r1, [r0, #64]	; 0x40
    85c8:	e12ff001 	msr	CPSR_fsxc, r1
    85cc:	e890ffff 	ldm	r0, {r0, r1, r2, r3, r4, r5, r6, r7, r8, r9, sl, fp, ip, sp, lr, pc}

000085d0 <priv_get_sp_lr_asm>:
    85d0:	e10f3000 	mrs	r3, CPSR
    85d4:	e121f000 	msr	CPSR_c, r0
    85d8:	e3a0c000 	mov	ip, #0, 0
    85dc:	ee07cf95 	mcr	15, 0, ip, cr7, cr5, {4}
    85e0:	e581d000 	str	sp, [r1]
    85e4:	e582e000 	str	lr, [r2]
    85e8:	e121f003 	msr	CPSR_c, r3
    85ec:	e3a0c000 	mov	ip, #0, 0
    85f0:	ee07cf95 	mcr	15, 0, ip, cr7, cr5, {4}
    85f4:	e12fff1e 	bx	lr

000085f8 <cswitchto_priv_asm>:
    85f8:	ea000830 	b	a6c0 <staff_cswitchto_priv_asm>
    85fc:	ebfffff0 	bl	85c4 <switchto_priv_asm>
    8600:	e3a0d409 	mov	sp, #150994944	; 0x9000000
    8604:	e24f0004 	sub	r0, pc, #4, 0
    8608:	e28f1000 	add	r1, pc, #0, 0
    860c:	ea0002df 	b	9190 <asm_not_reached_helper>
    8610:	74697773 	.word	0x74697773
    8614:	6f746863 	.word	0x6f746863
    8618:	6d73612d 	.word	0x6d73612d
    861c:	373a532e 	.word	0x373a532e
    8620:	4e3c3a30 	.word	0x4e3c3a30
    8624:	5220544f 	.word	0x5220544f
    8628:	48434145 	.word	0x48434145
    862c:	003e4445 	.word	0x003e4445

00008630 <cswitchto_user_asm>:
    8630:	ea000845 	b	a74c <staff_cswitchto_user_asm>
    8634:	e3a0d409 	mov	sp, #150994944	; 0x9000000
    8638:	e24f0004 	sub	r0, pc, #4, 0
    863c:	e28f1000 	add	r1, pc, #0, 0
    8640:	ea0002e6 	b	91e0 <asm_todo_helper>
    8644:	74697773 	.word	0x74697773
    8648:	6f746863 	.word	0x6f746863
    864c:	6d73612d 	.word	0x6d73612d
    8650:	383a532e 	.word	0x383a532e
    8654:	223c3a33 	.word	0x223c3a33
    8658:	65766173 	.word	0x65766173
    865c:	65687420 	.word	0x65687420
    8660:	67657220 	.word	0x67657220
    8664:	65747369 	.word	0x65747369
    8668:	203a7372 	.word	0x203a7372
    866c:	6e656469 	.word	0x6e656469
    8670:	61636974 	.word	0x61636974
    8674:	6f74206c 	.word	0x6f74206c
    8678:	77733c20 	.word	0x77733c20
    867c:	68637469 	.word	0x68637469
    8680:	705f6f74 	.word	0x705f6f74
    8684:	5f766972 	.word	0x5f766972
    8688:	3e6d7361 	.word	0x3e6d7361
    868c:	3e22      	.short	0x3e22
    868e:	00          	.byte	0x00
    868f:	00          	.byte	0x00
    8690:	ebffffc7 	bl	85b4 <switchto_user_asm>
    8694:	e3a0d409 	mov	sp, #150994944	; 0x9000000
    8698:	e24f0004 	sub	r0, pc, #4, 0
    869c:	e28f1000 	add	r1, pc, #0, 0
    86a0:	ea0002ba 	b	9190 <asm_not_reached_helper>
    86a4:	74697773 	.word	0x74697773
    86a8:	6f746863 	.word	0x6f746863
    86ac:	6d73612d 	.word	0x6d73612d
    86b0:	383a532e 	.word	0x383a532e
    86b4:	4e3c3a35 	.word	0x4e3c3a35
    86b8:	5220544f 	.word	0x5220544f
    86bc:	48434145 	.word	0x48434145
    86c0:	003e4445 	.word	0x003e4445

000086c4 <cp14_dscr2_set_raw>:
    86c4:	ee000e11 	mcr	14, 0, r0, cr0, cr1, {0}
    86c8:	e12fff1e 	bx	lr

000086cc <cp14_dscr2_set>:
    86cc:	e92d4010 	push	{r4, lr}
    86d0:	ebfffffb 	bl	86c4 <cp14_dscr2_set_raw>
    86d4:	e3a03000 	mov	r3, #0, 0
    86d8:	ee073f95 	mcr	15, 0, r3, cr7, cr5, {4}
    86dc:	e8bd8010 	pop	{r4, pc}

000086e0 <cp14_dscr2_get>:
    86e0:	ee100e11 	mrc	14, 0, r0, cr0, cr1, {0}
    86e4:	e12fff1e 	bx	lr

000086e8 <cp14_bcr1_set_raw>:
    86e8:	ee000eb1 	mcr	14, 0, r0, cr0, cr1, {5}
    86ec:	e12fff1e 	bx	lr

000086f0 <cp14_bcr1_set>:
    86f0:	e92d4010 	push	{r4, lr}
    86f4:	ebfffffb 	bl	86e8 <cp14_bcr1_set_raw>
    86f8:	e3a03000 	mov	r3, #0, 0
    86fc:	ee073f95 	mcr	15, 0, r3, cr7, cr5, {4}
    8700:	e8bd8010 	pop	{r4, pc}

00008704 <cp14_bcr1_get>:
    8704:	ee100eb1 	mrc	14, 0, r0, cr0, cr1, {5}
    8708:	e12fff1e 	bx	lr

0000870c <cp14_bvr1_set_raw>:
    870c:	ee000e91 	mcr	14, 0, r0, cr0, cr1, {4}
    8710:	e12fff1e 	bx	lr

00008714 <cp14_bvr1_set>:
    8714:	e92d4010 	push	{r4, lr}
    8718:	ebfffffb 	bl	870c <cp14_bvr1_set_raw>
    871c:	e3a03000 	mov	r3, #0, 0
    8720:	ee073f95 	mcr	15, 0, r3, cr7, cr5, {4}
    8724:	e8bd8010 	pop	{r4, pc}

00008728 <cp14_bvr1_get>:
    8728:	ee100e91 	mrc	14, 0, r0, cr0, cr1, {4}
    872c:	e12fff1e 	bx	lr

00008730 <cp14_bcr0_set_raw>:
    8730:	ee000eb0 	mcr	14, 0, r0, cr0, cr0, {5}
    8734:	e12fff1e 	bx	lr

00008738 <cp14_bcr0_set>:
    8738:	e92d4010 	push	{r4, lr}
    873c:	ebfffffb 	bl	8730 <cp14_bcr0_set_raw>
    8740:	e3a03000 	mov	r3, #0, 0
    8744:	ee073f95 	mcr	15, 0, r3, cr7, cr5, {4}
    8748:	e8bd8010 	pop	{r4, pc}

0000874c <cp14_bcr0_get>:
    874c:	ee100eb0 	mrc	14, 0, r0, cr0, cr0, {5}
    8750:	e12fff1e 	bx	lr

00008754 <cp14_bvr0_set_raw>:
    8754:	ee000e90 	mcr	14, 0, r0, cr0, cr0, {4}
    8758:	e12fff1e 	bx	lr

0000875c <cp14_bvr0_set>:
    875c:	e92d4010 	push	{r4, lr}
    8760:	ebfffffb 	bl	8754 <cp14_bvr0_set_raw>
    8764:	e3a03000 	mov	r3, #0, 0
    8768:	ee073f95 	mcr	15, 0, r3, cr7, cr5, {4}
    876c:	e8bd8010 	pop	{r4, pc}

00008770 <cp14_bvr0_get>:
    8770:	ee100e90 	mrc	14, 0, r0, cr0, cr0, {4}
    8774:	e12fff1e 	bx	lr

00008778 <cp15_ifsr_set_raw>:
    8778:	ee050f30 	mcr	15, 0, r0, cr5, cr0, {1}
    877c:	e12fff1e 	bx	lr

00008780 <cp15_ifsr_set>:
    8780:	e92d4010 	push	{r4, lr}
    8784:	ebfffffb 	bl	8778 <cp15_ifsr_set_raw>
    8788:	e3a03000 	mov	r3, #0, 0
    878c:	ee073f95 	mcr	15, 0, r3, cr7, cr5, {4}
    8790:	e8bd8010 	pop	{r4, pc}

00008794 <cp15_ifsr_get>:
    8794:	ee150f30 	mrc	15, 0, r0, cr5, cr0, {1}
    8798:	e12fff1e 	bx	lr

0000879c <brkpt_match_init>:
    879c:	e92d4010 	push	{r4, lr}
    87a0:	ebffffce 	bl	86e0 <cp14_dscr2_get>
    87a4:	e3800902 	orr	r0, r0, #32768	; 0x8000
    87a8:	ebffffc7 	bl	86cc <cp14_dscr2_set>
    87ac:	ebffffcb 	bl	86e0 <cp14_dscr2_get>
    87b0:	e3c00901 	bic	r0, r0, #16384	; 0x4000
    87b4:	ebffffc4 	bl	86cc <cp14_dscr2_set>
    87b8:	e8bd8010 	pop	{r4, pc}

000087bc <brkpt_match_set>:
    87bc:	e92d4010 	push	{r4, lr}
    87c0:	e1a04000 	mov	r4, r0
    87c4:	ebfffff4 	bl	879c <brkpt_match_init>
    87c8:	ebffffcd 	bl	8704 <cp14_bcr1_get>
    87cc:	e3c00001 	bic	r0, r0, #1, 0
    87d0:	ebffffc6 	bl	86f0 <cp14_bcr1_set>
    87d4:	e3c40003 	bic	r0, r4, #3, 0
    87d8:	ebffffcd 	bl	8714 <cp14_bvr1_set>
    87dc:	ebffffc8 	bl	8704 <cp14_bcr1_get>
    87e0:	e59f3010 	ldr	r3, [pc, #16]	; 87f8 <brkpt_match_set+0x3c>
    87e4:	e0033000 	and	r3, r3, r0
    87e8:	e3830f79 	orr	r0, r3, #484	; 0x1e4
    87ec:	e3800003 	orr	r0, r0, #3, 0
    87f0:	ebffffbe 	bl	86f0 <cp14_bcr1_set>
    87f4:	e8bd8010 	pop	{r4, pc}
    87f8:	ff8f3e1f 	.word	0xff8f3e1f

000087fc <brkpt_match_stop>:
    87fc:	e92d4010 	push	{r4, lr}
    8800:	ebffffbf 	bl	8704 <cp14_bcr1_get>
    8804:	e3c00001 	bic	r0, r0, #1, 0
    8808:	ebffffb8 	bl	86f0 <cp14_bcr1_set>
    880c:	e8bd8010 	pop	{r4, pc}

00008810 <brkpt_match_get>:
    8810:	e92d4010 	push	{r4, lr}
    8814:	ebffffba 	bl	8704 <cp14_bcr1_get>
    8818:	e2100001 	ands	r0, r0, #1, 0
    881c:	08bd8010 	popeq	{r4, pc}
    8820:	ebffffc0 	bl	8728 <cp14_bvr1_get>
    8824:	e8bd8010 	pop	{r4, pc}

00008828 <brkpt_mismatch_set>:
    8828:	e92d4010 	push	{r4, lr}
    882c:	e1a04000 	mov	r4, r0
    8830:	ebffffc5 	bl	874c <cp14_bcr0_get>
    8834:	e3c00001 	bic	r0, r0, #1, 0
    8838:	ebffffbe 	bl	8738 <cp14_bcr0_set>
    883c:	e3c40003 	bic	r0, r4, #3, 0
    8840:	ebffffc5 	bl	875c <cp14_bvr0_set>
    8844:	ebffffc0 	bl	874c <cp14_bcr0_get>
    8848:	e3c00606 	bic	r0, r0, #6291456	; 0x600000
    884c:	e3800501 	orr	r0, r0, #4194304	; 0x400000
    8850:	e3c009c3 	bic	r0, r0, #3194880	; 0x30c000
    8854:	e3c00e1e 	bic	r0, r0, #480	; 0x1e0
    8858:	e3800f79 	orr	r0, r0, #484	; 0x1e4
    885c:	e3800003 	orr	r0, r0, #3, 0
    8860:	ebffffb4 	bl	8738 <cp14_bcr0_set>
    8864:	e8bd8010 	pop	{r4, pc}

00008868 <brkpt_mismatch_start>:
    8868:	e92d4010 	push	{r4, lr}
    886c:	ebffff9b 	bl	86e0 <cp14_dscr2_get>
    8870:	e3100902 	tst	r0, #32768	; 0x8000
    8874:	0a000002 	beq	8884 <brkpt_mismatch_start+0x1c>
    8878:	e3a00000 	mov	r0, #0, 0
    887c:	ebffffe9 	bl	8828 <brkpt_mismatch_set>
    8880:	e8bd8010 	pop	{r4, pc}
    8884:	e3800902 	orr	r0, r0, #32768	; 0x8000
    8888:	ebffff8f 	bl	86cc <cp14_dscr2_set>
    888c:	eafffff9 	b	8878 <brkpt_mismatch_start+0x10>

00008890 <brkpt_mismatch_stop>:
    8890:	e92d4010 	push	{r4, lr}
    8894:	ebffffac 	bl	874c <cp14_bcr0_get>
    8898:	e3c00001 	bic	r0, r0, #1, 0
    889c:	ebffffa5 	bl	8738 <cp14_bcr0_set>
    88a0:	e8bd8010 	pop	{r4, pc}

000088a4 <brkpt_fault_p>:
    88a4:	e92d4010 	push	{r4, lr}
    88a8:	ebffffb9 	bl	8794 <cp15_ifsr_get>
    88ac:	e3100002 	tst	r0, #2, 0
    88b0:	1a000001 	bne	88bc <brkpt_fault_p+0x18>
    88b4:	e3a00000 	mov	r0, #0, 0
    88b8:	e8bd8010 	pop	{r4, pc}
    88bc:	ebffff87 	bl	86e0 <cp14_dscr2_get>
    88c0:	e3100004 	tst	r0, #4, 0
    88c4:	1a000001 	bne	88d0 <brkpt_fault_p+0x2c>
    88c8:	e3a00000 	mov	r0, #0, 0
    88cc:	e8bd8010 	pop	{r4, pc}
    88d0:	e3a00001 	mov	r0, #1, 0
    88d4:	e8bd8010 	pop	{r4, pc}

000088d8 <kmalloc_heap_end>:
    88d8:	e59f3004 	ldr	r3, [pc, #4]	; 88e4 <kmalloc_heap_end+0xc>
    88dc:	e5930000 	ldr	r0, [r3]
    88e0:	e12fff1e 	bx	lr
    88e4:	0000a7fc 	.word	0x0000a7fc

000088e8 <kmalloc_heap_start>:
    88e8:	e59f3004 	ldr	r3, [pc, #4]	; 88f4 <kmalloc_heap_start+0xc>
    88ec:	e5930004 	ldr	r0, [r3, #4]
    88f0:	e12fff1e 	bx	lr
    88f4:	0000a7fc 	.word	0x0000a7fc

000088f8 <kmalloc_heap_ptr>:
    88f8:	e59f3004 	ldr	r3, [pc, #4]	; 8904 <kmalloc_heap_ptr+0xc>
    88fc:	e5930008 	ldr	r0, [r3, #8]
    8900:	e12fff1e 	bx	lr
    8904:	0000a7fc 	.word	0x0000a7fc

00008908 <kmalloc_init_set_start>:
    8908:	e92d4030 	push	{r4, r5, lr}
    890c:	e24dd00c 	sub	sp, sp, #12, 0
    8910:	e1a05001 	mov	r5, r1
    8914:	e3510201 	cmp	r1, #268435456	; 0x10000000
    8918:	8a000014 	bhi	8970 <kmalloc_init_set_start+0x68>
    891c:	e1a04000 	mov	r4, r0
    8920:	eb000249 	bl	924c <program_end>
    8924:	e1540000 	cmp	r4, r0
    8928:	3a000017 	bcc	898c <kmalloc_init_set_start+0x84>
    892c:	e3550000 	cmp	r5, #0, 0
    8930:	0a00001b 	beq	89a4 <kmalloc_init_set_start+0x9c>
    8934:	e59f30d0 	ldr	r3, [pc, #208]	; 8a0c <kmalloc_init_set_start+0x104>
    8938:	e5933004 	ldr	r3, [r3, #4]
    893c:	e1530004 	cmp	r3, r4
    8940:	8a00001f 	bhi	89c4 <kmalloc_init_set_start+0xbc>
    8944:	e59f30c0 	ldr	r3, [pc, #192]	; 8a0c <kmalloc_init_set_start+0x104>
    8948:	e5933008 	ldr	r3, [r3, #8]
    894c:	e1530004 	cmp	r3, r4
    8950:	8a000023 	bhi	89e4 <kmalloc_init_set_start+0xdc>
    8954:	e59f30b0 	ldr	r3, [pc, #176]	; 8a0c <kmalloc_init_set_start+0x104>
    8958:	e5834008 	str	r4, [r3, #8]
    895c:	e5834004 	str	r4, [r3, #4]
    8960:	e0844005 	add	r4, r4, r5
    8964:	e5834000 	str	r4, [r3]
    8968:	e28dd00c 	add	sp, sp, #12, 0
    896c:	e8bd8030 	pop	{r4, r5, pc}
    8970:	e58d1000 	str	r1, [sp]
    8974:	e3a0303c 	mov	r3, #60, 0	; 0x3c
    8978:	e59f2090 	ldr	r2, [pc, #144]	; 8a10 <kmalloc_init_set_start+0x108>
    897c:	e59f1090 	ldr	r1, [pc, #144]	; 8a14 <kmalloc_init_set_start+0x10c>
    8980:	e59f0090 	ldr	r0, [pc, #144]	; 8a18 <kmalloc_init_set_start+0x110>
    8984:	eb0000ee 	bl	8d44 <printk>
    8988:	eb000227 	bl	922c <clean_reboot>
    898c:	e3a03040 	mov	r3, #64, 0	; 0x40
    8990:	e59f2078 	ldr	r2, [pc, #120]	; 8a10 <kmalloc_init_set_start+0x108>
    8994:	e59f1078 	ldr	r1, [pc, #120]	; 8a14 <kmalloc_init_set_start+0x10c>
    8998:	e59f007c 	ldr	r0, [pc, #124]	; 8a1c <kmalloc_init_set_start+0x114>
    899c:	eb0000e8 	bl	8d44 <printk>
    89a0:	eb000221 	bl	922c <clean_reboot>
    89a4:	e59f3074 	ldr	r3, [pc, #116]	; 8a20 <kmalloc_init_set_start+0x118>
    89a8:	e58d3000 	str	r3, [sp]
    89ac:	e3a03042 	mov	r3, #66, 0	; 0x42
    89b0:	e59f2058 	ldr	r2, [pc, #88]	; 8a10 <kmalloc_init_set_start+0x108>
    89b4:	e59f1058 	ldr	r1, [pc, #88]	; 8a14 <kmalloc_init_set_start+0x10c>
    89b8:	e59f0064 	ldr	r0, [pc, #100]	; 8a24 <kmalloc_init_set_start+0x11c>
    89bc:	eb0000e0 	bl	8d44 <printk>
    89c0:	eb000219 	bl	922c <clean_reboot>
    89c4:	e58d4004 	str	r4, [sp, #4]
    89c8:	e58d3000 	str	r3, [sp]
    89cc:	e3a03044 	mov	r3, #68, 0	; 0x44
    89d0:	e59f2038 	ldr	r2, [pc, #56]	; 8a10 <kmalloc_init_set_start+0x108>
    89d4:	e59f1038 	ldr	r1, [pc, #56]	; 8a14 <kmalloc_init_set_start+0x10c>
    89d8:	e59f0048 	ldr	r0, [pc, #72]	; 8a28 <kmalloc_init_set_start+0x120>
    89dc:	eb0000d8 	bl	8d44 <printk>
    89e0:	eb000211 	bl	922c <clean_reboot>
    89e4:	e59f3020 	ldr	r3, [pc, #32]	; 8a0c <kmalloc_init_set_start+0x104>
    89e8:	e5933000 	ldr	r3, [r3]
    89ec:	e58d3004 	str	r3, [sp, #4]
    89f0:	e58d4000 	str	r4, [sp]
    89f4:	e3a03048 	mov	r3, #72, 0	; 0x48
    89f8:	e59f2010 	ldr	r2, [pc, #16]	; 8a10 <kmalloc_init_set_start+0x108>
    89fc:	e59f1010 	ldr	r1, [pc, #16]	; 8a14 <kmalloc_init_set_start+0x10c>
    8a00:	e59f0024 	ldr	r0, [pc, #36]	; 8a2c <kmalloc_init_set_start+0x124>
    8a04:	eb0000ce 	bl	8d44 <printk>
    8a08:	eb000207 	bl	922c <clean_reboot>
    8a0c:	0000a7fc 	.word	0x0000a7fc
    8a10:	00009fa4 	.word	0x00009fa4
    8a14:	00009d44 	.word	0x00009d44
    8a18:	00009d54 	.word	0x00009d54
    8a1c:	00009d84 	.word	0x00009d84
    8a20:	00009dac 	.word	0x00009dac
    8a24:	00009b3c 	.word	0x00009b3c
    8a28:	00009db8 	.word	0x00009db8
    8a2c:	00009e20 	.word	0x00009e20

00008a30 <kmalloc_notzero>:
    8a30:	e52de004 	push	{lr}		; (str lr, [sp, #-4]!)
    8a34:	e24dd00c 	sub	sp, sp, #12, 0
    8a38:	e3500000 	cmp	r0, #0, 0
    8a3c:	0a00000f 	beq	8a80 <kmalloc_notzero+0x50>
    8a40:	e2800007 	add	r0, r0, #7, 0
    8a44:	e3c03007 	bic	r3, r0, #7, 0
    8a48:	e59f20ac 	ldr	r2, [pc, #172]	; 8afc <kmalloc_notzero+0xcc>
    8a4c:	e5920008 	ldr	r0, [r2, #8]
    8a50:	e3100007 	tst	r0, #7, 0
    8a54:	1a000011 	bne	8aa0 <kmalloc_notzero+0x70>
    8a58:	e3500000 	cmp	r0, #0, 0
    8a5c:	0a000017 	beq	8ac0 <kmalloc_notzero+0x90>
    8a60:	e0802003 	add	r2, r0, r3
    8a64:	e59f1090 	ldr	r1, [pc, #144]	; 8afc <kmalloc_notzero+0xcc>
    8a68:	e5812008 	str	r2, [r1, #8]
    8a6c:	e5911000 	ldr	r1, [r1]
    8a70:	e1520001 	cmp	r2, r1
    8a74:	8a000017 	bhi	8ad8 <kmalloc_notzero+0xa8>
    8a78:	e28dd00c 	add	sp, sp, #12, 0
    8a7c:	e49df004 	pop	{pc}		; (ldr pc, [sp], #4)
    8a80:	e59f3078 	ldr	r3, [pc, #120]	; 8b00 <kmalloc_notzero+0xd0>
    8a84:	e58d3000 	str	r3, [sp]
    8a88:	e3a03051 	mov	r3, #81, 0	; 0x51
    8a8c:	e59f2070 	ldr	r2, [pc, #112]	; 8b04 <kmalloc_notzero+0xd4>
    8a90:	e59f1070 	ldr	r1, [pc, #112]	; 8b08 <kmalloc_notzero+0xd8>
    8a94:	e59f0070 	ldr	r0, [pc, #112]	; 8b0c <kmalloc_notzero+0xdc>
    8a98:	eb0000a9 	bl	8d44 <printk>
    8a9c:	eb0001e2 	bl	922c <clean_reboot>
    8aa0:	e59f3068 	ldr	r3, [pc, #104]	; 8b10 <kmalloc_notzero+0xe0>
    8aa4:	e58d3000 	str	r3, [sp]
    8aa8:	e3a03054 	mov	r3, #84, 0	; 0x54
    8aac:	e59f2050 	ldr	r2, [pc, #80]	; 8b04 <kmalloc_notzero+0xd4>
    8ab0:	e59f1050 	ldr	r1, [pc, #80]	; 8b08 <kmalloc_notzero+0xd8>
    8ab4:	e59f0050 	ldr	r0, [pc, #80]	; 8b0c <kmalloc_notzero+0xdc>
    8ab8:	eb0000a1 	bl	8d44 <printk>
    8abc:	eb0001da 	bl	922c <clean_reboot>
    8ac0:	e3a03058 	mov	r3, #88, 0	; 0x58
    8ac4:	e59f2038 	ldr	r2, [pc, #56]	; 8b04 <kmalloc_notzero+0xd4>
    8ac8:	e59f1038 	ldr	r1, [pc, #56]	; 8b08 <kmalloc_notzero+0xd8>
    8acc:	e59f0040 	ldr	r0, [pc, #64]	; 8b14 <kmalloc_notzero+0xe4>
    8ad0:	eb00009b 	bl	8d44 <printk>
    8ad4:	eb0001d4 	bl	922c <clean_reboot>
    8ad8:	e0422001 	sub	r2, r2, r1
    8adc:	e58d2004 	str	r2, [sp, #4]
    8ae0:	e58d3000 	str	r3, [sp]
    8ae4:	e3a0305c 	mov	r3, #92, 0	; 0x5c
    8ae8:	e59f2014 	ldr	r2, [pc, #20]	; 8b04 <kmalloc_notzero+0xd4>
    8aec:	e59f1014 	ldr	r1, [pc, #20]	; 8b08 <kmalloc_notzero+0xd8>
    8af0:	e59f0020 	ldr	r0, [pc, #32]	; 8b18 <kmalloc_notzero+0xe8>
    8af4:	eb000092 	bl	8d44 <printk>
    8af8:	eb0001cb 	bl	922c <clean_reboot>
    8afc:	0000a7fc 	.word	0x0000a7fc
    8b00:	00009db0 	.word	0x00009db0
    8b04:	00009fbc 	.word	0x00009fbc
    8b08:	00009d44 	.word	0x00009d44
    8b0c:	00009b3c 	.word	0x00009b3c
    8b10:	00009e64 	.word	0x00009e64
    8b14:	00009e7c 	.word	0x00009e7c
    8b18:	00009ea8 	.word	0x00009ea8

00008b1c <kmalloc>:
    8b1c:	e92d4030 	push	{r4, r5, lr}
    8b20:	e24dd00c 	sub	sp, sp, #12, 0
    8b24:	e2504000 	subs	r4, r0, #0, 0
    8b28:	0a000008 	beq	8b50 <kmalloc+0x34>
    8b2c:	e1a00004 	mov	r0, r4
    8b30:	ebffffbe 	bl	8a30 <kmalloc_notzero>
    8b34:	e1a05000 	mov	r5, r0
    8b38:	e1a02004 	mov	r2, r4
    8b3c:	e3a01000 	mov	r1, #0, 0
    8b40:	eb000057 	bl	8ca4 <memset>
    8b44:	e1a00005 	mov	r0, r5
    8b48:	e28dd00c 	add	sp, sp, #12, 0
    8b4c:	e8bd8030 	pop	{r4, r5, pc}
    8b50:	e59f3018 	ldr	r3, [pc, #24]	; 8b70 <kmalloc+0x54>
    8b54:	e58d3000 	str	r3, [sp]
    8b58:	e3a03064 	mov	r3, #100, 0	; 0x64
    8b5c:	e59f2010 	ldr	r2, [pc, #16]	; 8b74 <kmalloc+0x58>
    8b60:	e59f1010 	ldr	r1, [pc, #16]	; 8b78 <kmalloc+0x5c>
    8b64:	e59f0010 	ldr	r0, [pc, #16]	; 8b7c <kmalloc+0x60>
    8b68:	eb000075 	bl	8d44 <printk>
    8b6c:	eb0001ae 	bl	922c <clean_reboot>
    8b70:	00009db0 	.word	0x00009db0
    8b74:	00009fcc 	.word	0x00009fcc
    8b78:	00009d44 	.word	0x00009d44
    8b7c:	00009b3c 	.word	0x00009b3c

00008b80 <kmalloc_aligned>:
    8b80:	e52de004 	push	{lr}		; (str lr, [sp, #-4]!)
    8b84:	e24dd00c 	sub	sp, sp, #12, 0
    8b88:	e3500000 	cmp	r0, #0, 0
    8b8c:	0a000014 	beq	8be4 <kmalloc_aligned+0x64>
    8b90:	e2613000 	rsb	r3, r1, #0, 0
    8b94:	e1d13003 	bics	r3, r1, r3
    8b98:	1a000019 	bne	8c04 <kmalloc_aligned+0x84>
    8b9c:	e3510008 	cmp	r1, #8, 0
    8ba0:	33a01008 	movcc	r1, #8, 0
    8ba4:	e59f30b8 	ldr	r3, [pc, #184]	; 8c64 <kmalloc_aligned+0xe4>
    8ba8:	e5932008 	ldr	r2, [r3, #8]
    8bac:	e2613000 	rsb	r3, r1, #0, 0
    8bb0:	e1d1c003 	bics	ip, r1, r3
    8bb4:	1a00001a 	bne	8c24 <kmalloc_aligned+0xa4>
    8bb8:	e0822001 	add	r2, r2, r1
    8bbc:	e2422001 	sub	r2, r2, #1, 0
    8bc0:	e0033002 	and	r3, r3, r2
    8bc4:	e2411001 	sub	r1, r1, #1, 0
    8bc8:	e1110003 	tst	r1, r3
    8bcc:	1a00001c 	bne	8c44 <kmalloc_aligned+0xc4>
    8bd0:	e59f208c 	ldr	r2, [pc, #140]	; 8c64 <kmalloc_aligned+0xe4>
    8bd4:	e5823008 	str	r3, [r2, #8]
    8bd8:	ebffffcf 	bl	8b1c <kmalloc>
    8bdc:	e28dd00c 	add	sp, sp, #12, 0
    8be0:	e49df004 	pop	{pc}		; (ldr pc, [sp], #4)
    8be4:	e59f307c 	ldr	r3, [pc, #124]	; 8c68 <kmalloc_aligned+0xe8>
    8be8:	e58d3000 	str	r3, [sp]
    8bec:	e3a0306e 	mov	r3, #110, 0	; 0x6e
    8bf0:	e59f2074 	ldr	r2, [pc, #116]	; 8c6c <kmalloc_aligned+0xec>
    8bf4:	e59f1074 	ldr	r1, [pc, #116]	; 8c70 <kmalloc_aligned+0xf0>
    8bf8:	e59f0074 	ldr	r0, [pc, #116]	; 8c74 <kmalloc_aligned+0xf4>
    8bfc:	eb000050 	bl	8d44 <printk>
    8c00:	eb000189 	bl	922c <clean_reboot>
    8c04:	e59f306c 	ldr	r3, [pc, #108]	; 8c78 <kmalloc_aligned+0xf8>
    8c08:	e58d3000 	str	r3, [sp]
    8c0c:	e3a0306f 	mov	r3, #111, 0	; 0x6f
    8c10:	e59f2054 	ldr	r2, [pc, #84]	; 8c6c <kmalloc_aligned+0xec>
    8c14:	e59f1054 	ldr	r1, [pc, #84]	; 8c70 <kmalloc_aligned+0xf0>
    8c18:	e59f005c 	ldr	r0, [pc, #92]	; 8c7c <kmalloc_aligned+0xfc>
    8c1c:	eb000048 	bl	8d44 <printk>
    8c20:	eb000181 	bl	922c <clean_reboot>
    8c24:	e59f3054 	ldr	r3, [pc, #84]	; 8c80 <kmalloc_aligned+0x100>
    8c28:	e58d3000 	str	r3, [sp]
    8c2c:	e3a03011 	mov	r3, #17, 0
    8c30:	e59f204c 	ldr	r2, [pc, #76]	; 8c84 <kmalloc_aligned+0x104>
    8c34:	e59f1034 	ldr	r1, [pc, #52]	; 8c70 <kmalloc_aligned+0xf0>
    8c38:	e59f0034 	ldr	r0, [pc, #52]	; 8c74 <kmalloc_aligned+0xf4>
    8c3c:	eb000040 	bl	8d44 <printk>
    8c40:	eb000179 	bl	922c <clean_reboot>
    8c44:	e59f303c 	ldr	r3, [pc, #60]	; 8c88 <kmalloc_aligned+0x108>
    8c48:	e58d3000 	str	r3, [sp]
    8c4c:	e3a03076 	mov	r3, #118, 0	; 0x76
    8c50:	e59f2014 	ldr	r2, [pc, #20]	; 8c6c <kmalloc_aligned+0xec>
    8c54:	e59f1014 	ldr	r1, [pc, #20]	; 8c70 <kmalloc_aligned+0xf0>
    8c58:	e59f002c 	ldr	r0, [pc, #44]	; 8c8c <kmalloc_aligned+0x10c>
    8c5c:	eb000038 	bl	8d44 <printk>
    8c60:	eb000171 	bl	922c <clean_reboot>
    8c64:	0000a7fc 	.word	0x0000a7fc
    8c68:	00009db0 	.word	0x00009db0
    8c6c:	00009fd4 	.word	0x00009fd4
    8c70:	00009d44 	.word	0x00009d44
    8c74:	00009b3c 	.word	0x00009b3c
    8c78:	00009f30 	.word	0x00009f30
    8c7c:	00009ef0 	.word	0x00009ef0
    8c80:	00009f44 	.word	0x00009f44
    8c84:	00009fe4 	.word	0x00009fe4
    8c88:	00009f88 	.word	0x00009f88
    8c8c:	00009f50 	.word	0x00009f50

00008c90 <kfree_all>:
    8c90:	e59f3008 	ldr	r3, [pc, #8]	; 8ca0 <kfree_all+0x10>
    8c94:	e5932004 	ldr	r2, [r3, #4]
    8c98:	e5832008 	str	r2, [r3, #8]
    8c9c:	e12fff1e 	bx	lr
    8ca0:	0000a7fc 	.word	0x0000a7fc

00008ca4 <memset>:
    8ca4:	e3520000 	cmp	r2, #0, 0
    8ca8:	012fff1e 	bxeq	lr
    8cac:	e3510000 	cmp	r1, #0, 0
    8cb0:	1a000007 	bne	8cd4 <memset+0x30>
    8cb4:	e3100007 	tst	r0, #7, 0
    8cb8:	1a000001 	bne	8cc4 <memset+0x20>
    8cbc:	e3120007 	tst	r2, #7, 0
    8cc0:	0a000011 	beq	8d0c <memset+0x68>
    8cc4:	e3100003 	tst	r0, #3, 0
    8cc8:	1a000001 	bne	8cd4 <memset+0x30>
    8ccc:	e3120003 	tst	r2, #3, 0
    8cd0:	0a000001 	beq	8cdc <memset+0x38>
    8cd4:	e0802002 	add	r2, r0, r2
    8cd8:	ea000008 	b	8d00 <memset+0x5c>
    8cdc:	e1a02122 	lsr	r2, r2, #2
    8ce0:	ea000001 	b	8cec <memset+0x48>
    8ce4:	e4801004 	str	r1, [r0], #4
    8ce8:	e1a02003 	mov	r2, r3
    8cec:	e2423001 	sub	r3, r2, #1, 0
    8cf0:	e3520000 	cmp	r2, #0, 0
    8cf4:	1afffffa 	bne	8ce4 <memset+0x40>
    8cf8:	e12fff1e 	bx	lr
    8cfc:	e4c01001 	strb	r1, [r0], #1
    8d00:	e1500002 	cmp	r0, r2
    8d04:	3afffffc 	bcc	8cfc <memset+0x58>
    8d08:	e12fff1e 	bx	lr
    8d0c:	e1a021a2 	lsr	r2, r2, #3
    8d10:	e2423001 	sub	r3, r2, #1, 0
    8d14:	e3520000 	cmp	r2, #0, 0
    8d18:	012fff1e 	bxeq	lr
    8d1c:	e92d0030 	push	{r4, r5}
    8d20:	e1a04001 	mov	r4, r1
    8d24:	e1a05fc1 	asr	r5, r1, #31
    8d28:	e0c040f8 	strd	r4, [r0], #8
    8d2c:	e1a02003 	mov	r2, r3
    8d30:	e2433001 	sub	r3, r3, #1, 0
    8d34:	e3520000 	cmp	r2, #0, 0
    8d38:	1afffff8 	bne	8d20 <memset+0x7c>
    8d3c:	e8bd0030 	pop	{r4, r5}
    8d40:	e12fff1e 	bx	lr

00008d44 <printk>:
    8d44:	e92d000f 	push	{r0, r1, r2, r3}
    8d48:	e52de004 	push	{lr}		; (str lr, [sp, #-4]!)
    8d4c:	e24dd00c 	sub	sp, sp, #12, 0
    8d50:	e28d1014 	add	r1, sp, #20, 0
    8d54:	e58d1004 	str	r1, [sp, #4]
    8d58:	e59d0010 	ldr	r0, [sp, #16]
    8d5c:	eb000047 	bl	8e80 <vprintk>
    8d60:	e28dd00c 	add	sp, sp, #12, 0
    8d64:	e49de004 	pop	{lr}		; (ldr lr, [sp], #4)
    8d68:	e28dd010 	add	sp, sp, #16, 0
    8d6c:	e12fff1e 	bx	lr

00008d70 <emit_val>:
    8d70:	e92d4010 	push	{r4, lr}
    8d74:	e24dd030 	sub	sp, sp, #48, 0	; 0x30
    8d78:	e350000a 	cmp	r0, #10, 0
    8d7c:	0a000014 	beq	8dd4 <emit_val+0x64>
    8d80:	e3500010 	cmp	r0, #16, 0
    8d84:	0a000022 	beq	8e14 <emit_val+0xa4>
    8d88:	e3500002 	cmp	r0, #2, 0
    8d8c:	0a000006 	beq	8dac <emit_val+0x3c>
    8d90:	e58d0000 	str	r0, [sp]
    8d94:	e3a0301b 	mov	r3, #27, 0
    8d98:	e59f20c0 	ldr	r2, [pc, #192]	; 8e60 <emit_val+0xf0>
    8d9c:	e59f10c0 	ldr	r1, [pc, #192]	; 8e64 <emit_val+0xf4>
    8da0:	e59f00c0 	ldr	r0, [pc, #192]	; 8e68 <emit_val+0xf8>
    8da4:	ebffffe6 	bl	8d44 <printk>
    8da8:	eb00011f 	bl	922c <clean_reboot>
    8dac:	e28d400c 	add	r4, sp, #12, 0
    8db0:	e2012001 	and	r2, r1, #1, 0
    8db4:	e59f00b0 	ldr	r0, [pc, #176]	; 8e6c <emit_val+0xfc>
    8db8:	e7d02002 	ldrb	r2, [r0, r2]
    8dbc:	e5c42000 	strb	r2, [r4]
    8dc0:	e2844001 	add	r4, r4, #1, 0
    8dc4:	e3510001 	cmp	r1, #1, 0
    8dc8:	e1a010a1 	lsr	r1, r1, #1
    8dcc:	8afffff7 	bhi	8db0 <emit_val+0x40>
    8dd0:	ea00001d 	b	8e4c <emit_val+0xdc>
    8dd4:	e28d400c 	add	r4, sp, #12, 0
    8dd8:	e59f3090 	ldr	r3, [pc, #144]	; 8e70 <emit_val+0x100>
    8ddc:	e0832193 	umull	r2, r3, r3, r1
    8de0:	e1a031a3 	lsr	r3, r3, #3
    8de4:	e1a00003 	mov	r0, r3
    8de8:	e0833103 	add	r3, r3, r3, lsl #2
    8dec:	e0413083 	sub	r3, r1, r3, lsl #1
    8df0:	e59fc07c 	ldr	ip, [pc, #124]	; 8e74 <emit_val+0x104>
    8df4:	e7dcc003 	ldrb	ip, [ip, r3]
    8df8:	e5c4c000 	strb	ip, [r4]
    8dfc:	e2844001 	add	r4, r4, #1, 0
    8e00:	e1a03001 	mov	r3, r1
    8e04:	e1a01000 	mov	r1, r0
    8e08:	e3530009 	cmp	r3, #9, 0
    8e0c:	8afffff1 	bhi	8dd8 <emit_val+0x68>
    8e10:	ea00000d 	b	8e4c <emit_val+0xdc>
    8e14:	e28d400c 	add	r4, sp, #12, 0
    8e18:	e201200f 	and	r2, r1, #15, 0
    8e1c:	e59f0054 	ldr	r0, [pc, #84]	; 8e78 <emit_val+0x108>
    8e20:	e7d02002 	ldrb	r2, [r0, r2]
    8e24:	e5c42000 	strb	r2, [r4]
    8e28:	e2844001 	add	r4, r4, #1, 0
    8e2c:	e351000f 	cmp	r1, #15, 0
    8e30:	e1a01221 	lsr	r1, r1, #4
    8e34:	8afffff7 	bhi	8e18 <emit_val+0xa8>
    8e38:	ea000003 	b	8e4c <emit_val+0xdc>
    8e3c:	e59f3038 	ldr	r3, [pc, #56]	; 8e7c <emit_val+0x10c>
    8e40:	e5933000 	ldr	r3, [r3]
    8e44:	e5740001 	ldrb	r0, [r4, #-1]!
    8e48:	e12fff33 	blx	r3
    8e4c:	e28d300c 	add	r3, sp, #12, 0
    8e50:	e1540003 	cmp	r4, r3
    8e54:	8afffff8 	bhi	8e3c <emit_val+0xcc>
    8e58:	e28dd030 	add	sp, sp, #48, 0	; 0x30
    8e5c:	e8bd8010 	pop	{r4, pc}
    8e60:	0000a0a4 	.word	0x0000a0a4
    8e64:	00009fec 	.word	0x00009fec
    8e68:	00009ffc 	.word	0x00009ffc
    8e6c:	0000a020 	.word	0x0000a020
    8e70:	cccccccd 	.word	0xcccccccd
    8e74:	0000a024 	.word	0x0000a024
    8e78:	0000a030 	.word	0x0000a030
    8e7c:	0000a808 	.word	0x0000a808

00008e80 <vprintk>:
    8e80:	e92d4030 	push	{r4, r5, lr}
    8e84:	e24dd014 	sub	sp, sp, #20, 0
    8e88:	e1a04000 	mov	r4, r0
    8e8c:	e58d100c 	str	r1, [sp, #12]
    8e90:	ea000003 	b	8ea4 <vprintk+0x24>
    8e94:	e59f32b0 	ldr	r3, [pc, #688]	; 914c <vprintk+0x2cc>
    8e98:	e5933000 	ldr	r3, [r3]
    8e9c:	e12fff33 	blx	r3
    8ea0:	e2844001 	add	r4, r4, #1, 0
    8ea4:	e5d40000 	ldrb	r0, [r4]
    8ea8:	e3500000 	cmp	r0, #0, 0
    8eac:	0a0000a4 	beq	9144 <vprintk+0x2c4>
    8eb0:	e3500025 	cmp	r0, #37, 0	; 0x25
    8eb4:	1afffff6 	bne	8e94 <vprintk+0x14>
    8eb8:	e2845001 	add	r5, r4, #1, 0
    8ebc:	e5d42001 	ldrb	r2, [r4, #1]
    8ec0:	e2423058 	sub	r3, r2, #88, 0	; 0x58
    8ec4:	e3530020 	cmp	r3, #32, 0
    8ec8:	979ff103 	ldrls	pc, [pc, r3, lsl #2]
    8ecc:	ea000095 	b	9128 <vprintk+0x2a8>
    8ed0:	0000908c 	.word	0x0000908c
    8ed4:	00009128 	.word	0x00009128
    8ed8:	00009128 	.word	0x00009128
    8edc:	00009128 	.word	0x00009128
    8ee0:	00009128 	.word	0x00009128
    8ee4:	00009128 	.word	0x00009128
    8ee8:	00009128 	.word	0x00009128
    8eec:	00009128 	.word	0x00009128
    8ef0:	00009128 	.word	0x00009128
    8ef4:	00009128 	.word	0x00009128
    8ef8:	00008f54 	.word	0x00008f54
    8efc:	00008f94 	.word	0x00008f94
    8f00:	000090ac 	.word	0x000090ac
    8f04:	00009128 	.word	0x00009128
    8f08:	00009128 	.word	0x00009128
    8f0c:	00009128 	.word	0x00009128
    8f10:	00009128 	.word	0x00009128
    8f14:	00009128 	.word	0x00009128
    8f18:	00009128 	.word	0x00009128
    8f1c:	00009128 	.word	0x00009128
    8f20:	00008fb8 	.word	0x00008fb8
    8f24:	00009128 	.word	0x00009128
    8f28:	00009128 	.word	0x00009128
    8f2c:	00009128 	.word	0x00009128
    8f30:	00009070 	.word	0x00009070
    8f34:	00009128 	.word	0x00009128
    8f38:	00009128 	.word	0x00009128
    8f3c:	000090f0 	.word	0x000090f0
    8f40:	00009128 	.word	0x00009128
    8f44:	00008f74 	.word	0x00008f74
    8f48:	00009128 	.word	0x00009128
    8f4c:	00009128 	.word	0x00009128
    8f50:	00009070 	.word	0x00009070
    8f54:	e59d300c 	ldr	r3, [sp, #12]
    8f58:	e2832004 	add	r2, r3, #4, 0
    8f5c:	e58d200c 	str	r2, [sp, #12]
    8f60:	e5931000 	ldr	r1, [r3]
    8f64:	e3a00002 	mov	r0, #2, 0
    8f68:	ebffff80 	bl	8d70 <emit_val>
    8f6c:	e1a04005 	mov	r4, r5
    8f70:	eaffffca 	b	8ea0 <vprintk+0x20>
    8f74:	e59d300c 	ldr	r3, [sp, #12]
    8f78:	e2832004 	add	r2, r3, #4, 0
    8f7c:	e58d200c 	str	r2, [sp, #12]
    8f80:	e5931000 	ldr	r1, [r3]
    8f84:	e3a0000a 	mov	r0, #10, 0
    8f88:	ebffff78 	bl	8d70 <emit_val>
    8f8c:	e1a04005 	mov	r4, r5
    8f90:	eaffffc2 	b	8ea0 <vprintk+0x20>
    8f94:	e59f31b0 	ldr	r3, [pc, #432]	; 914c <vprintk+0x2cc>
    8f98:	e5932000 	ldr	r2, [r3]
    8f9c:	e59d300c 	ldr	r3, [sp, #12]
    8fa0:	e2831004 	add	r1, r3, #4, 0
    8fa4:	e58d100c 	str	r1, [sp, #12]
    8fa8:	e5930000 	ldr	r0, [r3]
    8fac:	e12fff32 	blx	r2
    8fb0:	e1a04005 	mov	r4, r5
    8fb4:	eaffffb9 	b	8ea0 <vprintk+0x20>
    8fb8:	e2842002 	add	r2, r4, #2, 0
    8fbc:	e5d43002 	ldrb	r3, [r4, #2]
    8fc0:	e353006c 	cmp	r3, #108, 0	; 0x6c
    8fc4:	1a000018 	bne	902c <vprintk+0x1ac>
    8fc8:	e2845003 	add	r5, r4, #3, 0
    8fcc:	e5d43003 	ldrb	r3, [r4, #3]
    8fd0:	e3530078 	cmp	r3, #120, 0	; 0x78
    8fd4:	1a00001b 	bne	9048 <vprintk+0x1c8>
    8fd8:	e59f416c 	ldr	r4, [pc, #364]	; 914c <vprintk+0x2cc>
    8fdc:	e5943000 	ldr	r3, [r4]
    8fe0:	e3a00030 	mov	r0, #48, 0	; 0x30
    8fe4:	e12fff33 	blx	r3
    8fe8:	e5943000 	ldr	r3, [r4]
    8fec:	e3a00078 	mov	r0, #120, 0	; 0x78
    8ff0:	e12fff33 	blx	r3
    8ff4:	e59d300c 	ldr	r3, [sp, #12]
    8ff8:	e2833007 	add	r3, r3, #7, 0
    8ffc:	e3c33007 	bic	r3, r3, #7, 0
    9000:	e2832008 	add	r2, r3, #8, 0
    9004:	e58d200c 	str	r2, [sp, #12]
    9008:	e5934000 	ldr	r4, [r3]
    900c:	e5931004 	ldr	r1, [r3, #4]
    9010:	e3510000 	cmp	r1, #0, 0
    9014:	1a000012 	bne	9064 <vprintk+0x1e4>
    9018:	e1a01004 	mov	r1, r4
    901c:	e3a00010 	mov	r0, #16, 0
    9020:	ebffff52 	bl	8d70 <emit_val>
    9024:	e1a04005 	mov	r4, r5
    9028:	eaffff9c 	b	8ea0 <vprintk+0x20>
    902c:	e58d2000 	str	r2, [sp]
    9030:	e3a0303b 	mov	r3, #59, 0	; 0x3b
    9034:	e59f2114 	ldr	r2, [pc, #276]	; 9150 <vprintk+0x2d0>
    9038:	e59f1114 	ldr	r1, [pc, #276]	; 9154 <vprintk+0x2d4>
    903c:	e59f0114 	ldr	r0, [pc, #276]	; 9158 <vprintk+0x2d8>
    9040:	ebffff3f 	bl	8d44 <printk>
    9044:	eb000078 	bl	922c <clean_reboot>
    9048:	e58d5000 	str	r5, [sp]
    904c:	e3a0303e 	mov	r3, #62, 0	; 0x3e
    9050:	e59f20f8 	ldr	r2, [pc, #248]	; 9150 <vprintk+0x2d0>
    9054:	e59f10f8 	ldr	r1, [pc, #248]	; 9154 <vprintk+0x2d4>
    9058:	e59f00f8 	ldr	r0, [pc, #248]	; 9158 <vprintk+0x2d8>
    905c:	ebffff38 	bl	8d44 <printk>
    9060:	eb000071 	bl	922c <clean_reboot>
    9064:	e3a00010 	mov	r0, #16, 0
    9068:	ebffff40 	bl	8d70 <emit_val>
    906c:	eaffffe9 	b	9018 <vprintk+0x198>
    9070:	e59f40d4 	ldr	r4, [pc, #212]	; 914c <vprintk+0x2cc>
    9074:	e5943000 	ldr	r3, [r4]
    9078:	e3a00030 	mov	r0, #48, 0	; 0x30
    907c:	e12fff33 	blx	r3
    9080:	e5943000 	ldr	r3, [r4]
    9084:	e3a00078 	mov	r0, #120, 0	; 0x78
    9088:	e12fff33 	blx	r3
    908c:	e59d300c 	ldr	r3, [sp, #12]
    9090:	e2832004 	add	r2, r3, #4, 0
    9094:	e58d200c 	str	r2, [sp, #12]
    9098:	e5931000 	ldr	r1, [r3]
    909c:	e3a00010 	mov	r0, #16, 0
    90a0:	ebffff32 	bl	8d70 <emit_val>
    90a4:	e1a04005 	mov	r4, r5
    90a8:	eaffff7c 	b	8ea0 <vprintk+0x20>
    90ac:	e59d300c 	ldr	r3, [sp, #12]
    90b0:	e2832004 	add	r2, r3, #4, 0
    90b4:	e58d200c 	str	r2, [sp, #12]
    90b8:	e5934000 	ldr	r4, [r3]
    90bc:	e3540000 	cmp	r4, #0, 0
    90c0:	ba000004 	blt	90d8 <vprintk+0x258>
    90c4:	e1a01004 	mov	r1, r4
    90c8:	e3a0000a 	mov	r0, #10, 0
    90cc:	ebffff27 	bl	8d70 <emit_val>
    90d0:	e1a04005 	mov	r4, r5
    90d4:	eaffff71 	b	8ea0 <vprintk+0x20>
    90d8:	e59f306c 	ldr	r3, [pc, #108]	; 914c <vprintk+0x2cc>
    90dc:	e5933000 	ldr	r3, [r3]
    90e0:	e3a0002d 	mov	r0, #45, 0	; 0x2d
    90e4:	e12fff33 	blx	r3
    90e8:	e2644000 	rsb	r4, r4, #0, 0
    90ec:	eafffff4 	b	90c4 <vprintk+0x244>
    90f0:	e59d300c 	ldr	r3, [sp, #12]
    90f4:	e2832004 	add	r2, r3, #4, 0
    90f8:	e58d200c 	str	r2, [sp, #12]
    90fc:	e5934000 	ldr	r4, [r3]
    9100:	e5d40000 	ldrb	r0, [r4]
    9104:	e3500000 	cmp	r0, #0, 0
    9108:	0a000004 	beq	9120 <vprintk+0x2a0>
    910c:	e59f3038 	ldr	r3, [pc, #56]	; 914c <vprintk+0x2cc>
    9110:	e5933000 	ldr	r3, [r3]
    9114:	e12fff33 	blx	r3
    9118:	e2844001 	add	r4, r4, #1, 0
    911c:	eafffff7 	b	9100 <vprintk+0x280>
    9120:	e1a04005 	mov	r4, r5
    9124:	eaffff5d 	b	8ea0 <vprintk+0x20>
    9128:	e58d2000 	str	r2, [sp]
    912c:	e3a03063 	mov	r3, #99, 0	; 0x63
    9130:	e59f2018 	ldr	r2, [pc, #24]	; 9150 <vprintk+0x2d0>
    9134:	e59f1018 	ldr	r1, [pc, #24]	; 9154 <vprintk+0x2d4>
    9138:	e59f001c 	ldr	r0, [pc, #28]	; 915c <vprintk+0x2dc>
    913c:	ebffff00 	bl	8d44 <printk>
    9140:	eb000039 	bl	922c <clean_reboot>
    9144:	e28dd014 	add	sp, sp, #20, 0
    9148:	e8bd8030 	pop	{r4, r5, pc}
    914c:	0000a808 	.word	0x0000a808
    9150:	0000a0b0 	.word	0x0000a0b0
    9154:	00009fec 	.word	0x00009fec
    9158:	0000a044 	.word	0x0000a044
    915c:	0000a07c 	.word	0x0000a07c

00009160 <default_putchar>:
    9160:	e92d4010 	push	{r4, lr}
    9164:	e1a04000 	mov	r4, r0
    9168:	e6ef0070 	uxtb	r0, r0
    916c:	eb0000e2 	bl	94fc <uart_put8>
    9170:	e1a00004 	mov	r0, r4
    9174:	e8bd8010 	pop	{r4, pc}

00009178 <rpi_putchar_set>:
    9178:	e59f300c 	ldr	r3, [pc, #12]	; 918c <rpi_putchar_set+0x14>
    917c:	e5932000 	ldr	r2, [r3]
    9180:	e5830000 	str	r0, [r3]
    9184:	e1a00002 	mov	r0, r2
    9188:	e12fff1e 	bx	lr
    918c:	0000a808 	.word	0x0000a808

00009190 <asm_not_reached_helper>:
    9190:	e92d4010 	push	{r4, lr}
    9194:	e1a04000 	mov	r4, r0
    9198:	e59f0010 	ldr	r0, [pc, #16]	; 91b0 <asm_not_reached_helper+0x20>
    919c:	ebfffee8 	bl	8d44 <printk>
    91a0:	e1a01004 	mov	r1, r4
    91a4:	e59f0008 	ldr	r0, [pc, #8]	; 91b4 <asm_not_reached_helper+0x24>
    91a8:	ebfffee5 	bl	8d44 <printk>
    91ac:	eb00001e 	bl	922c <clean_reboot>
    91b0:	0000a0b8 	.word	0x0000a0b8
    91b4:	0000a0ec 	.word	0x0000a0ec

000091b8 <asm_not_implemented_helper>:
    91b8:	e92d4010 	push	{r4, lr}
    91bc:	e1a04000 	mov	r4, r0
    91c0:	e59f0010 	ldr	r0, [pc, #16]	; 91d8 <asm_not_implemented_helper+0x20>
    91c4:	ebfffede 	bl	8d44 <printk>
    91c8:	e1a01004 	mov	r1, r4
    91cc:	e59f0008 	ldr	r0, [pc, #8]	; 91dc <asm_not_implemented_helper+0x24>
    91d0:	ebfffedb 	bl	8d44 <printk>
    91d4:	eb000014 	bl	922c <clean_reboot>
    91d8:	0000a120 	.word	0x0000a120
    91dc:	0000a0ec 	.word	0x0000a0ec

000091e0 <asm_todo_helper>:
    91e0:	e92d4010 	push	{r4, lr}
    91e4:	e1a04001 	mov	r4, r1
    91e8:	e59f0018 	ldr	r0, [pc, #24]	; 9208 <asm_todo_helper+0x28>
    91ec:	ebfffed4 	bl	8d44 <printk>
    91f0:	e59f0014 	ldr	r0, [pc, #20]	; 920c <asm_todo_helper+0x2c>
    91f4:	ebfffed2 	bl	8d44 <printk>
    91f8:	e1a01004 	mov	r1, r4
    91fc:	e59f000c 	ldr	r0, [pc, #12]	; 9210 <asm_todo_helper+0x30>
    9200:	ebfffecf 	bl	8d44 <printk>
    9204:	eb000008 	bl	922c <clean_reboot>
    9208:	0000a14c 	.word	0x0000a14c
    920c:	0000a184 	.word	0x0000a184
    9210:	0000a1b8 	.word	0x0000a1b8

00009214 <asm_bad_exception_helper>:
    9214:	e92d4010 	push	{r4, lr}
    9218:	e1a02000 	mov	r2, r0
    921c:	e59f0004 	ldr	r0, [pc, #4]	; 9228 <asm_bad_exception_helper+0x14>
    9220:	ebfffec7 	bl	8d44 <printk>
    9224:	eb000000 	bl	922c <clean_reboot>
    9228:	0000a1c0 	.word	0x0000a1c0

0000922c <clean_reboot>:
    922c:	e92d4010 	push	{r4, lr}
    9230:	e59f0010 	ldr	r0, [pc, #16]	; 9248 <clean_reboot+0x1c>
    9234:	eb0000fc 	bl	962c <putk>
    9238:	eb0000e4 	bl	95d0 <uart_flush_tx>
    923c:	e3a0000a 	mov	r0, #10, 0
    9240:	eb000036 	bl	9320 <delay_ms>
    9244:	eb000011 	bl	9290 <rpi_reboot>
    9248:	0000a1e0 	.word	0x0000a1e0

0000924c <program_end>:
    924c:	e59f0000 	ldr	r0, [pc]	; 9254 <program_end+0x8>
    9250:	e12fff1e 	bx	lr
    9254:	0000a810 	.word	0x0000a810

00009258 <_cstart>:
    9258:	e92d4010 	push	{r4, lr}
    925c:	e59f3024 	ldr	r3, [pc, #36]	; 9288 <_cstart+0x30>
    9260:	e59f2024 	ldr	r2, [pc, #36]	; 928c <_cstart+0x34>
    9264:	e1530002 	cmp	r3, r2
    9268:	33a02000 	movcc	r2, #0, 0
    926c:	34c32001 	strbcc	r2, [r3], #1
    9270:	3afffffa 	bcc	9260 <_cstart+0x8>
    9274:	eb000066 	bl	9414 <uart_init>
    9278:	e3a03001 	mov	r3, #1, 0
    927c:	ee0f3f1c 	mcr	15, 0, r3, cr15, cr12, {0}
    9280:	ebfffc04 	bl	8298 <notmain>
    9284:	ebffffe8 	bl	922c <clean_reboot>
    9288:	0000a80c 	.word	0x0000a80c
    928c:	0000a810 	.word	0x0000a810

00009290 <rpi_reboot>:
    9290:	e92d4010 	push	{r4, lr}
    9294:	eb0000cd 	bl	95d0 <uart_flush_tx>
    9298:	e3a0000a 	mov	r0, #10, 0
    929c:	eb00001f 	bl	9320 <delay_ms>
    92a0:	e59f1014 	ldr	r1, [pc, #20]	; 92bc <rpi_reboot+0x2c>
    92a4:	e59f0014 	ldr	r0, [pc, #20]	; 92c0 <rpi_reboot+0x30>
    92a8:	ebfffb5d 	bl	8024 <PUT32>
    92ac:	e59f1010 	ldr	r1, [pc, #16]	; 92c4 <rpi_reboot+0x34>
    92b0:	e59f0010 	ldr	r0, [pc, #16]	; 92c8 <rpi_reboot+0x38>
    92b4:	ebfffb5a 	bl	8024 <PUT32>
    92b8:	eafffffe 	b	92b8 <rpi_reboot+0x28>
    92bc:	5a000001 	.word	0x5a000001
    92c0:	20100024 	.word	0x20100024
    92c4:	5a000020 	.word	0x5a000020
    92c8:	2010001c 	.word	0x2010001c

000092cc <timer_get_usec_raw>:
    92cc:	e92d4010 	push	{r4, lr}
    92d0:	e59f0004 	ldr	r0, [pc, #4]	; 92dc <timer_get_usec_raw+0x10>
    92d4:	ebfffb54 	bl	802c <GET32>
    92d8:	e8bd8010 	pop	{r4, pc}
    92dc:	20003004 	.word	0x20003004

000092e0 <timer_get_usec>:
    92e0:	e92d4010 	push	{r4, lr}
    92e4:	eb00013f 	bl	97e8 <dev_barrier>
    92e8:	ebfffff7 	bl	92cc <timer_get_usec_raw>
    92ec:	e1a04000 	mov	r4, r0
    92f0:	eb00013c 	bl	97e8 <dev_barrier>
    92f4:	e1a00004 	mov	r0, r4
    92f8:	e8bd8010 	pop	{r4, pc}

000092fc <delay_us>:
    92fc:	e92d4070 	push	{r4, r5, r6, lr}
    9300:	e1a05000 	mov	r5, r0
    9304:	ebfffff5 	bl	92e0 <timer_get_usec>
    9308:	e1a04000 	mov	r4, r0
    930c:	ebfffff3 	bl	92e0 <timer_get_usec>
    9310:	e0400004 	sub	r0, r0, r4
    9314:	e1500005 	cmp	r0, r5
    9318:	3afffffb 	bcc	930c <delay_us+0x10>
    931c:	e8bd8070 	pop	{r4, r5, r6, pc}

00009320 <delay_ms>:
    9320:	e92d4010 	push	{r4, lr}
    9324:	e0603280 	rsb	r3, r0, r0, lsl #5
    9328:	e0800103 	add	r0, r0, r3, lsl #2
    932c:	e1a00180 	lsl	r0, r0, #3
    9330:	ebfffff1 	bl	92fc <delay_us>
    9334:	e8bd8010 	pop	{r4, pc}

00009338 <delay_sec>:
    9338:	e92d4010 	push	{r4, lr}
    933c:	e0603280 	rsb	r3, r0, r0, lsl #5
    9340:	e0800103 	add	r0, r0, r3, lsl #2
    9344:	e1a00180 	lsl	r0, r0, #3
    9348:	ebfffff4 	bl	9320 <delay_ms>
    934c:	e8bd8010 	pop	{r4, pc}

00009350 <unhandled_reset>:
    9350:	e24ee004 	sub	lr, lr, #4, 0
    9354:	e3a0d409 	mov	sp, #150994944	; 0x9000000
    9358:	e92d5fff 	push	{r0, r1, r2, r3, r4, r5, r6, r7, r8, r9, sl, fp, ip, lr}
    935c:	e1a0000e 	mov	r0, lr
    9360:	eb0000fa 	bl	9750 <reset_vector>
    9364:	e8bd5fff 	pop	{r0, r1, r2, r3, r4, r5, r6, r7, r8, r9, sl, fp, ip, lr}
    9368:	e1b0f00e 	movs	pc, lr

0000936c <unhandled_undefined_instruction>:
    936c:	e24ee004 	sub	lr, lr, #4, 0
    9370:	e3a0d409 	mov	sp, #150994944	; 0x9000000
    9374:	e92d5fff 	push	{r0, r1, r2, r3, r4, r5, r6, r7, r8, r9, sl, fp, ip, lr}
    9378:	e1a0000e 	mov	r0, lr
    937c:	eb00010b 	bl	97b0 <undefined_instruction_vector>
    9380:	e8bd5fff 	pop	{r0, r1, r2, r3, r4, r5, r6, r7, r8, r9, sl, fp, ip, lr}
    9384:	e1b0f00e 	movs	pc, lr

00009388 <unhandled_prefetch_abort>:
    9388:	e24ee004 	sub	lr, lr, #4, 0
    938c:	e3a0d409 	mov	sp, #150994944	; 0x9000000
    9390:	e92d5fff 	push	{r0, r1, r2, r3, r4, r5, r6, r7, r8, r9, sl, fp, ip, lr}
    9394:	e1a0000e 	mov	r0, lr
    9398:	eb0000e0 	bl	9720 <prefetch_abort_vector>
    939c:	e8bd5fff 	pop	{r0, r1, r2, r3, r4, r5, r6, r7, r8, r9, sl, fp, ip, lr}
    93a0:	e1b0f00e 	movs	pc, lr

000093a4 <unhandled_data_abort>:
    93a4:	e24ee008 	sub	lr, lr, #8, 0
    93a8:	e3a0d409 	mov	sp, #150994944	; 0x9000000
    93ac:	e92d5fff 	push	{r0, r1, r2, r3, r4, r5, r6, r7, r8, r9, sl, fp, ip, lr}
    93b0:	e1a0000e 	mov	r0, lr
    93b4:	eb0000a9 	bl	9660 <data_abort_vector>
    93b8:	e8bd5fff 	pop	{r0, r1, r2, r3, r4, r5, r6, r7, r8, r9, sl, fp, ip, lr}
    93bc:	e1b0f00e 	movs	pc, lr

000093c0 <unhandled_interrupt>:
    93c0:	e24ee004 	sub	lr, lr, #4, 0
    93c4:	e3a0d409 	mov	sp, #150994944	; 0x9000000
    93c8:	e92d5fff 	push	{r0, r1, r2, r3, r4, r5, r6, r7, r8, r9, sl, fp, ip, lr}
    93cc:	e1a0000e 	mov	r0, lr
    93d0:	eb0000c6 	bl	96f0 <int_vector>
    93d4:	e8bd5fff 	pop	{r0, r1, r2, r3, r4, r5, r6, r7, r8, r9, sl, fp, ip, lr}
    93d8:	e1b0f00e 	movs	pc, lr

000093dc <unhandled_swi>:
    93dc:	e24ee004 	sub	lr, lr, #4, 0
    93e0:	e3a0d409 	mov	sp, #150994944	; 0x9000000
    93e4:	e92d5fff 	push	{r0, r1, r2, r3, r4, r5, r6, r7, r8, r9, sl, fp, ip, lr}
    93e8:	e1a0000e 	mov	r0, lr
    93ec:	eb0000e3 	bl	9780 <syscall_vector>
    93f0:	e8bd5fff 	pop	{r0, r1, r2, r3, r4, r5, r6, r7, r8, r9, sl, fp, ip, lr}
    93f4:	e1b0f00e 	movs	pc, lr

000093f8 <unhandled_fiq>:
    93f8:	e24ee004 	sub	lr, lr, #4, 0
    93fc:	e3a0d409 	mov	sp, #150994944	; 0x9000000
    9400:	e92d5fff 	push	{r0, r1, r2, r3, r4, r5, r6, r7, r8, r9, sl, fp, ip, lr}
    9404:	e1a0000e 	mov	r0, lr
    9408:	eb0000ac 	bl	96c0 <fiq_vector>
    940c:	e8bd5fff 	pop	{r0, r1, r2, r3, r4, r5, r6, r7, r8, r9, sl, fp, ip, lr}
    9410:	e1b0f00e 	movs	pc, lr

00009414 <uart_init>:
    9414:	e92d4010 	push	{r4, lr}
    9418:	eb0000f2 	bl	97e8 <dev_barrier>
    941c:	e3a01002 	mov	r1, #2, 0
    9420:	e3a0000e 	mov	r0, #14, 0
    9424:	eb00015b 	bl	9998 <gpio_set_function>
    9428:	e3a01002 	mov	r1, #2, 0
    942c:	e3a0000f 	mov	r0, #15, 0
    9430:	eb000158 	bl	9998 <gpio_set_function>
    9434:	eb0000eb 	bl	97e8 <dev_barrier>
    9438:	e59f4074 	ldr	r4, [pc, #116]	; 94b4 <uart_init+0xa0>
    943c:	e1a00004 	mov	r0, r4
    9440:	ebfffaf9 	bl	802c <GET32>
    9444:	e3801001 	orr	r1, r0, #1, 0
    9448:	e1a00004 	mov	r0, r4
    944c:	ebfffaf4 	bl	8024 <PUT32>
    9450:	eb0000e4 	bl	97e8 <dev_barrier>
    9454:	e284405c 	add	r4, r4, #92, 0	; 0x5c
    9458:	e3a01000 	mov	r1, #0, 0
    945c:	e1a00004 	mov	r0, r4
    9460:	ebfffaef 	bl	8024 <PUT32>
    9464:	e3a01000 	mov	r1, #0, 0
    9468:	e59f0048 	ldr	r0, [pc, #72]	; 94b8 <uart_init+0xa4>
    946c:	ebfffaec 	bl	8024 <PUT32>
    9470:	e3a01006 	mov	r1, #6, 0
    9474:	e59f0040 	ldr	r0, [pc, #64]	; 94bc <uart_init+0xa8>
    9478:	ebfffae9 	bl	8024 <PUT32>
    947c:	e3a01000 	mov	r1, #0, 0
    9480:	e59f0038 	ldr	r0, [pc, #56]	; 94c0 <uart_init+0xac>
    9484:	ebfffae6 	bl	8024 <PUT32>
    9488:	e59f1034 	ldr	r1, [pc, #52]	; 94c4 <uart_init+0xb0>
    948c:	e59f0034 	ldr	r0, [pc, #52]	; 94c8 <uart_init+0xb4>
    9490:	ebfffae3 	bl	8024 <PUT32>
    9494:	e3a01003 	mov	r1, #3, 0
    9498:	e59f002c 	ldr	r0, [pc, #44]	; 94cc <uart_init+0xb8>
    949c:	ebfffae0 	bl	8024 <PUT32>
    94a0:	e3a01003 	mov	r1, #3, 0
    94a4:	e1a00004 	mov	r0, r4
    94a8:	ebfffadd 	bl	8024 <PUT32>
    94ac:	eb0000cd 	bl	97e8 <dev_barrier>
    94b0:	e8bd8010 	pop	{r4, pc}
    94b4:	20215004 	.word	0x20215004
    94b8:	20215050 	.word	0x20215050
    94bc:	20215048 	.word	0x20215048
    94c0:	20215044 	.word	0x20215044
    94c4:	0000010e 	.word	0x0000010e
    94c8:	20215068 	.word	0x20215068
    94cc:	2021504c 	.word	0x2021504c

000094d0 <uart_can_put8>:
    94d0:	e92d4010 	push	{r4, lr}
    94d4:	eb0000c3 	bl	97e8 <dev_barrier>
    94d8:	e59f0018 	ldr	r0, [pc, #24]	; 94f8 <uart_can_put8+0x28>
    94dc:	ebfffad2 	bl	802c <GET32>
    94e0:	e3100020 	tst	r0, #32, 0
    94e4:	13a04001 	movne	r4, #1, 0
    94e8:	03a04000 	moveq	r4, #0, 0
    94ec:	eb0000bd 	bl	97e8 <dev_barrier>
    94f0:	e1a00004 	mov	r0, r4
    94f4:	e8bd8010 	pop	{r4, pc}
    94f8:	20215054 	.word	0x20215054

000094fc <uart_put8>:
    94fc:	e92d4010 	push	{r4, lr}
    9500:	e1a04000 	mov	r4, r0
    9504:	eb0000b7 	bl	97e8 <dev_barrier>
    9508:	ebfffff0 	bl	94d0 <uart_can_put8>
    950c:	e3500000 	cmp	r0, #0, 0
    9510:	0afffffc 	beq	9508 <uart_put8+0xc>
    9514:	e1a01004 	mov	r1, r4
    9518:	e59f000c 	ldr	r0, [pc, #12]	; 952c <uart_put8+0x30>
    951c:	ebfffac0 	bl	8024 <PUT32>
    9520:	eb0000b0 	bl	97e8 <dev_barrier>
    9524:	e3a00001 	mov	r0, #1, 0
    9528:	e8bd8010 	pop	{r4, pc}
    952c:	20215040 	.word	0x20215040

00009530 <uart_has_data>:
    9530:	e92d4010 	push	{r4, lr}
    9534:	eb0000ab 	bl	97e8 <dev_barrier>
    9538:	e59f0010 	ldr	r0, [pc, #16]	; 9550 <uart_has_data+0x20>
    953c:	ebfffaba 	bl	802c <GET32>
    9540:	e2004001 	and	r4, r0, #1, 0
    9544:	eb0000a7 	bl	97e8 <dev_barrier>
    9548:	e1a00004 	mov	r0, r4
    954c:	e8bd8010 	pop	{r4, pc}
    9550:	20215054 	.word	0x20215054

00009554 <uart_get8>:
    9554:	e92d4010 	push	{r4, lr}
    9558:	eb0000a2 	bl	97e8 <dev_barrier>
    955c:	ebfffff3 	bl	9530 <uart_has_data>
    9560:	e3500000 	cmp	r0, #0, 0
    9564:	0afffffc 	beq	955c <uart_get8+0x8>
    9568:	e59f0010 	ldr	r0, [pc, #16]	; 9580 <uart_get8+0x2c>
    956c:	ebfffaae 	bl	802c <GET32>
    9570:	e6ef4070 	uxtb	r4, r0
    9574:	eb00009b 	bl	97e8 <dev_barrier>
    9578:	e1a00004 	mov	r0, r4
    957c:	e8bd8010 	pop	{r4, pc}
    9580:	20215040 	.word	0x20215040

00009584 <uart_get8_async>:
    9584:	e92d4010 	push	{r4, lr}
    9588:	ebffffe8 	bl	9530 <uart_has_data>
    958c:	e3500000 	cmp	r0, #0, 0
    9590:	0a000001 	beq	959c <uart_get8_async+0x18>
    9594:	ebffffee 	bl	9554 <uart_get8>
    9598:	e8bd8010 	pop	{r4, pc}
    959c:	e3e00000 	mvn	r0, #0, 0
    95a0:	e8bd8010 	pop	{r4, pc}

000095a4 <uart_tx_is_empty>:
    95a4:	e92d4010 	push	{r4, lr}
    95a8:	eb00008e 	bl	97e8 <dev_barrier>
    95ac:	e59f0018 	ldr	r0, [pc, #24]	; 95cc <uart_tx_is_empty+0x28>
    95b0:	ebfffa9d 	bl	802c <GET32>
    95b4:	e3100040 	tst	r0, #64, 0	; 0x40
    95b8:	13a04001 	movne	r4, #1, 0
    95bc:	03a04000 	moveq	r4, #0, 0
    95c0:	eb000088 	bl	97e8 <dev_barrier>
    95c4:	e1a00004 	mov	r0, r4
    95c8:	e8bd8010 	pop	{r4, pc}
    95cc:	20215054 	.word	0x20215054

000095d0 <uart_flush_tx>:
    95d0:	e92d4010 	push	{r4, lr}
    95d4:	ebfffff2 	bl	95a4 <uart_tx_is_empty>
    95d8:	e3500000 	cmp	r0, #0, 0
    95dc:	18bd8010 	popne	{r4, pc}
    95e0:	eb000086 	bl	9800 <rpi_wait>
    95e4:	eafffffa 	b	95d4 <uart_flush_tx+0x4>

000095e8 <uart_disable>:
    95e8:	e92d4010 	push	{r4, lr}
    95ec:	eb00007d 	bl	97e8 <dev_barrier>
    95f0:	ebfffff6 	bl	95d0 <uart_flush_tx>
    95f4:	e3a01000 	mov	r1, #0, 0
    95f8:	e59f0024 	ldr	r0, [pc, #36]	; 9624 <uart_disable+0x3c>
    95fc:	ebfffa88 	bl	8024 <PUT32>
    9600:	eb000078 	bl	97e8 <dev_barrier>
    9604:	e59f401c 	ldr	r4, [pc, #28]	; 9628 <uart_disable+0x40>
    9608:	e1a00004 	mov	r0, r4
    960c:	ebfffa86 	bl	802c <GET32>
    9610:	e3c01001 	bic	r1, r0, #1, 0
    9614:	e1a00004 	mov	r0, r4
    9618:	ebfffa81 	bl	8024 <PUT32>
    961c:	eb000071 	bl	97e8 <dev_barrier>
    9620:	e8bd8010 	pop	{r4, pc}
    9624:	20215060 	.word	0x20215060
    9628:	20215004 	.word	0x20215004

0000962c <putk>:
    962c:	e92d4010 	push	{r4, lr}
    9630:	e1a04000 	mov	r4, r0
    9634:	e5d40000 	ldrb	r0, [r4]
    9638:	e3500000 	cmp	r0, #0, 0
    963c:	0a000004 	beq	9654 <putk+0x28>
    9640:	e59f3014 	ldr	r3, [pc, #20]	; 965c <putk+0x30>
    9644:	e5933000 	ldr	r3, [r3]
    9648:	e12fff33 	blx	r3
    964c:	e2844001 	add	r4, r4, #1, 0
    9650:	eafffff7 	b	9634 <putk+0x8>
    9654:	e3a00001 	mov	r0, #1, 0
    9658:	e8bd8010 	pop	{r4, pc}
    965c:	0000a808 	.word	0x0000a808

00009660 <data_abort_vector>:
    9660:	e52de004 	push	{lr}		; (str lr, [sp, #-4]!)
    9664:	e24dd00c 	sub	sp, sp, #12, 0
    9668:	e58d0000 	str	r0, [sp]
    966c:	e3a03003 	mov	r3, #3, 0
    9670:	e59f200c 	ldr	r2, [pc, #12]	; 9684 <data_abort_vector+0x24>
    9674:	e59f100c 	ldr	r1, [pc, #12]	; 9688 <data_abort_vector+0x28>
    9678:	e59f000c 	ldr	r0, [pc, #12]	; 968c <data_abort_vector+0x2c>
    967c:	ebfffdb0 	bl	8d44 <printk>
    9680:	ebfffee9 	bl	922c <clean_reboot>
    9684:	0000a248 	.word	0x0000a248
    9688:	0000a1ec 	.word	0x0000a1ec
    968c:	0000a218 	.word	0x0000a218

00009690 <fast_interrupt_vector>:
    9690:	e52de004 	push	{lr}		; (str lr, [sp, #-4]!)
    9694:	e24dd00c 	sub	sp, sp, #12, 0
    9698:	e58d0000 	str	r0, [sp]
    969c:	e3a03003 	mov	r3, #3, 0
    96a0:	e59f200c 	ldr	r2, [pc, #12]	; 96b4 <fast_interrupt_vector+0x24>
    96a4:	e59f100c 	ldr	r1, [pc, #12]	; 96b8 <fast_interrupt_vector+0x28>
    96a8:	e59f000c 	ldr	r0, [pc, #12]	; 96bc <fast_interrupt_vector+0x2c>
    96ac:	ebfffda4 	bl	8d44 <printk>
    96b0:	ebfffedd 	bl	922c <clean_reboot>
    96b4:	0000a2b4 	.word	0x0000a2b4
    96b8:	0000a25c 	.word	0x0000a25c
    96bc:	0000a280 	.word	0x0000a280

000096c0 <fiq_vector>:
    96c0:	e52de004 	push	{lr}		; (str lr, [sp, #-4]!)
    96c4:	e24dd00c 	sub	sp, sp, #12, 0
    96c8:	e58d0000 	str	r0, [sp]
    96cc:	e3a03006 	mov	r3, #6, 0
    96d0:	e59f200c 	ldr	r2, [pc, #12]	; 96e4 <fiq_vector+0x24>
    96d4:	e59f100c 	ldr	r1, [pc, #12]	; 96e8 <fiq_vector+0x28>
    96d8:	e59f000c 	ldr	r0, [pc, #12]	; 96ec <fiq_vector+0x2c>
    96dc:	ebfffd98 	bl	8d44 <printk>
    96e0:	ebfffed1 	bl	922c <clean_reboot>
    96e4:	0000a2cc 	.word	0x0000a2cc
    96e8:	0000a25c 	.word	0x0000a25c
    96ec:	0000a280 	.word	0x0000a280

000096f0 <int_vector>:
    96f0:	e52de004 	push	{lr}		; (str lr, [sp, #-4]!)
    96f4:	e24dd00c 	sub	sp, sp, #12, 0
    96f8:	e58d0000 	str	r0, [sp]
    96fc:	e3a03003 	mov	r3, #3, 0
    9700:	e59f200c 	ldr	r2, [pc, #12]	; 9714 <int_vector+0x24>
    9704:	e59f100c 	ldr	r1, [pc, #12]	; 9718 <int_vector+0x28>
    9708:	e59f000c 	ldr	r0, [pc, #12]	; 971c <int_vector+0x2c>
    970c:	ebfffd8c 	bl	8d44 <printk>
    9710:	ebfffec5 	bl	922c <clean_reboot>
    9714:	0000a328 	.word	0x0000a328
    9718:	0000a2d8 	.word	0x0000a2d8
    971c:	0000a2fc 	.word	0x0000a2fc

00009720 <prefetch_abort_vector>:
    9720:	e52de004 	push	{lr}		; (str lr, [sp, #-4]!)
    9724:	e24dd00c 	sub	sp, sp, #12, 0
    9728:	e58d0000 	str	r0, [sp]
    972c:	e3a03003 	mov	r3, #3, 0
    9730:	e59f200c 	ldr	r2, [pc, #12]	; 9744 <prefetch_abort_vector+0x24>
    9734:	e59f100c 	ldr	r1, [pc, #12]	; 9748 <prefetch_abort_vector+0x28>
    9738:	e59f000c 	ldr	r0, [pc, #12]	; 974c <prefetch_abort_vector+0x2c>
    973c:	ebfffd80 	bl	8d44 <printk>
    9740:	ebfffeb9 	bl	922c <clean_reboot>
    9744:	0000a38c 	.word	0x0000a38c
    9748:	0000a334 	.word	0x0000a334
    974c:	0000a35c 	.word	0x0000a35c

00009750 <reset_vector>:
    9750:	e52de004 	push	{lr}		; (str lr, [sp, #-4]!)
    9754:	e24dd00c 	sub	sp, sp, #12, 0
    9758:	e58d0000 	str	r0, [sp]
    975c:	e3a03003 	mov	r3, #3, 0
    9760:	e59f200c 	ldr	r2, [pc, #12]	; 9774 <reset_vector+0x24>
    9764:	e59f100c 	ldr	r1, [pc, #12]	; 9778 <reset_vector+0x28>
    9768:	e59f000c 	ldr	r0, [pc, #12]	; 977c <reset_vector+0x2c>
    976c:	ebfffd74 	bl	8d44 <printk>
    9770:	ebfffead 	bl	922c <clean_reboot>
    9774:	0000a3fc 	.word	0x0000a3fc
    9778:	0000a3a4 	.word	0x0000a3a4
    977c:	0000a3c8 	.word	0x0000a3c8

00009780 <syscall_vector>:
    9780:	e52de004 	push	{lr}		; (str lr, [sp, #-4]!)
    9784:	e24dd00c 	sub	sp, sp, #12, 0
    9788:	e58d0000 	str	r0, [sp]
    978c:	e3a03003 	mov	r3, #3, 0
    9790:	e59f200c 	ldr	r2, [pc, #12]	; 97a4 <syscall_vector+0x24>
    9794:	e59f100c 	ldr	r1, [pc, #12]	; 97a8 <syscall_vector+0x28>
    9798:	e59f000c 	ldr	r0, [pc, #12]	; 97ac <syscall_vector+0x2c>
    979c:	ebfffd68 	bl	8d44 <printk>
    97a0:	ebfffea1 	bl	922c <clean_reboot>
    97a4:	0000a460 	.word	0x0000a460
    97a8:	0000a40c 	.word	0x0000a40c
    97ac:	0000a430 	.word	0x0000a430

000097b0 <undefined_instruction_vector>:
    97b0:	e52de004 	push	{lr}		; (str lr, [sp, #-4]!)
    97b4:	e24dd00c 	sub	sp, sp, #12, 0
    97b8:	e5903000 	ldr	r3, [r0]
    97bc:	e58d3004 	str	r3, [sp, #4]
    97c0:	e58d0000 	str	r0, [sp]
    97c4:	e3a03003 	mov	r3, #3, 0
    97c8:	e59f200c 	ldr	r2, [pc, #12]	; 97dc <undefined_instruction_vector+0x2c>
    97cc:	e59f100c 	ldr	r1, [pc, #12]	; 97e0 <undefined_instruction_vector+0x30>
    97d0:	e59f000c 	ldr	r0, [pc, #12]	; 97e4 <undefined_instruction_vector+0x34>
    97d4:	ebfffd5a 	bl	8d44 <printk>
    97d8:	ebfffe93 	bl	922c <clean_reboot>
    97dc:	0000a4e8 	.word	0x0000a4e8
    97e0:	0000a470 	.word	0x0000a470
    97e4:	0000a4a0 	.word	0x0000a4a0

000097e8 <dev_barrier>:
    97e8:	ea000002 	b	97f8 <dsb>

000097ec <dmb>:
    97ec:	e3a00000 	mov	r0, #0, 0
    97f0:	ee070fba 	mcr	15, 0, r0, cr7, cr10, {5}
    97f4:	e12fff1e 	bx	lr

000097f8 <dsb>:
    97f8:	ee070f9a 	mcr	15, 0, r0, cr7, cr10, {4}
    97fc:	e12fff1e 	bx	lr

00009800 <rpi_wait>:
    9800:	e12fff1e 	bx	lr

00009804 <gpio_set_txpin>:
    9804:	e92d4070 	push	{r4, r5, r6, lr}
    9808:	e1a04000 	mov	r4, r0
    980c:	e3500035 	cmp	r0, #53, 0	; 0x35
    9810:	8a000010 	bhi	9858 <gpio_set_txpin+0x54>
    9814:	e59f104c 	ldr	r1, [pc, #76]	; 9868 <gpio_set_txpin+0x64>
    9818:	e0813491 	umull	r3, r1, r1, r4
    981c:	e1a011a1 	lsr	r1, r1, #3
    9820:	e0811101 	add	r1, r1, r1, lsl #2
    9824:	e0441081 	sub	r1, r4, r1, lsl #1
    9828:	e0814081 	add	r4, r1, r1, lsl #1
    982c:	e3a00007 	mov	r0, #7, 0
    9830:	e1a05410 	lsl	r5, r0, r4
    9834:	e59f6030 	ldr	r6, [pc, #48]	; 986c <gpio_set_txpin+0x68>
    9838:	e1a00006 	mov	r0, r6
    983c:	ebfff9fa 	bl	802c <GET32>
    9840:	e1c00005 	bic	r0, r0, r5
    9844:	e3a01004 	mov	r1, #4, 0
    9848:	e1801411 	orr	r1, r0, r1, lsl r4
    984c:	e1a00006 	mov	r0, r6
    9850:	ebfff9f3 	bl	8024 <PUT32>
    9854:	e8bd8070 	pop	{r4, r5, r6, pc}
    9858:	e1a01000 	mov	r1, r0
    985c:	e59f000c 	ldr	r0, [pc, #12]	; 9870 <gpio_set_txpin+0x6c>
    9860:	eb000079 	bl	9a4c <gpio_panic>
    9864:	eaffffea 	b	9814 <gpio_set_txpin+0x10>
    9868:	cccccccd 	.word	0xcccccccd
    986c:	20200004 	.word	0x20200004
    9870:	0000a508 	.word	0x0000a508

00009874 <gpio_set_on>:
    9874:	e92d4010 	push	{r4, lr}
    9878:	e1a04000 	mov	r4, r0
    987c:	e3500035 	cmp	r0, #53, 0	; 0x35
    9880:	8a000007 	bhi	98a4 <gpio_set_on+0x30>
    9884:	e204301f 	and	r3, r4, #31, 0
    9888:	e3a01001 	mov	r1, #1, 0
    988c:	e1a01311 	lsl	r1, r1, r3
    9890:	e354001f 	cmp	r4, #31, 0
    9894:	8a000006 	bhi	98b4 <gpio_set_on+0x40>
    9898:	e59f0020 	ldr	r0, [pc, #32]	; 98c0 <gpio_set_on+0x4c>
    989c:	ebfff9e0 	bl	8024 <PUT32>
    98a0:	e8bd8010 	pop	{r4, pc}
    98a4:	e1a01000 	mov	r1, r0
    98a8:	e59f0014 	ldr	r0, [pc, #20]	; 98c4 <gpio_set_on+0x50>
    98ac:	eb000066 	bl	9a4c <gpio_panic>
    98b0:	eafffff3 	b	9884 <gpio_set_on+0x10>
    98b4:	e59f000c 	ldr	r0, [pc, #12]	; 98c8 <gpio_set_on+0x54>
    98b8:	ebfff9d9 	bl	8024 <PUT32>
    98bc:	e8bd8010 	pop	{r4, pc}
    98c0:	2020001c 	.word	0x2020001c
    98c4:	0000a508 	.word	0x0000a508
    98c8:	20200020 	.word	0x20200020

000098cc <gpio_set_off>:
    98cc:	e92d4010 	push	{r4, lr}
    98d0:	e1a04000 	mov	r4, r0
    98d4:	e3500035 	cmp	r0, #53, 0	; 0x35
    98d8:	8a000007 	bhi	98fc <gpio_set_off+0x30>
    98dc:	e204301f 	and	r3, r4, #31, 0
    98e0:	e3a01001 	mov	r1, #1, 0
    98e4:	e1a01311 	lsl	r1, r1, r3
    98e8:	e354001f 	cmp	r4, #31, 0
    98ec:	8a000006 	bhi	990c <gpio_set_off+0x40>
    98f0:	e59f0020 	ldr	r0, [pc, #32]	; 9918 <gpio_set_off+0x4c>
    98f4:	ebfff9ca 	bl	8024 <PUT32>
    98f8:	e8bd8010 	pop	{r4, pc}
    98fc:	e1a01000 	mov	r1, r0
    9900:	e59f0014 	ldr	r0, [pc, #20]	; 991c <gpio_set_off+0x50>
    9904:	eb000050 	bl	9a4c <gpio_panic>
    9908:	eafffff3 	b	98dc <gpio_set_off+0x10>
    990c:	e59f000c 	ldr	r0, [pc, #12]	; 9920 <gpio_set_off+0x54>
    9910:	ebfff9c3 	bl	8024 <PUT32>
    9914:	e8bd8010 	pop	{r4, pc}
    9918:	20200028 	.word	0x20200028
    991c:	0000a508 	.word	0x0000a508
    9920:	2020002c 	.word	0x2020002c

00009924 <gpio_write>:
    9924:	e92d4010 	push	{r4, lr}
    9928:	e3510000 	cmp	r1, #0, 0
    992c:	0a000001 	beq	9938 <gpio_write+0x14>
    9930:	ebffffcf 	bl	9874 <gpio_set_on>
    9934:	e8bd8010 	pop	{r4, pc}
    9938:	ebffffe3 	bl	98cc <gpio_set_off>
    993c:	e8bd8010 	pop	{r4, pc}

00009940 <gpio_read>:
    9940:	e92d4010 	push	{r4, lr}
    9944:	e1a04000 	mov	r4, r0
    9948:	e3500035 	cmp	r0, #53, 0	; 0x35
    994c:	8a000007 	bhi	9970 <gpio_read+0x30>
    9950:	e354001f 	cmp	r4, #31, 0
    9954:	8a000009 	bhi	9980 <gpio_read+0x40>
    9958:	e59f002c 	ldr	r0, [pc, #44]	; 998c <gpio_read+0x4c>
    995c:	ebfff9b2 	bl	802c <GET32>
    9960:	e204401f 	and	r4, r4, #31, 0
    9964:	e1a00430 	lsr	r0, r0, r4
    9968:	e2000001 	and	r0, r0, #1, 0
    996c:	e8bd8010 	pop	{r4, pc}
    9970:	e1a01000 	mov	r1, r0
    9974:	e59f0014 	ldr	r0, [pc, #20]	; 9990 <gpio_read+0x50>
    9978:	eb000033 	bl	9a4c <gpio_panic>
    997c:	eafffff3 	b	9950 <gpio_read+0x10>
    9980:	e59f000c 	ldr	r0, [pc, #12]	; 9994 <gpio_read+0x54>
    9984:	ebfff9a8 	bl	802c <GET32>
    9988:	eafffff4 	b	9960 <gpio_read+0x20>
    998c:	20200034 	.word	0x20200034
    9990:	0000a508 	.word	0x0000a508
    9994:	20200038 	.word	0x20200038

00009998 <gpio_set_function>:
    9998:	e92d41f0 	push	{r4, r5, r6, r7, r8, lr}
    999c:	e1a04000 	mov	r4, r0
    99a0:	e1a06001 	mov	r6, r1
    99a4:	e3500035 	cmp	r0, #53, 0	; 0x35
    99a8:	8a000014 	bhi	9a00 <gpio_set_function+0x68>
    99ac:	e3d63007 	bics	r3, r6, #7, 0
    99b0:	1a000016 	bne	9a10 <gpio_set_function+0x78>
    99b4:	e59f3064 	ldr	r3, [pc, #100]	; 9a20 <gpio_set_function+0x88>
    99b8:	e0832493 	umull	r2, r3, r3, r4
    99bc:	e1a031a3 	lsr	r3, r3, #3
    99c0:	e1a02003 	mov	r2, r3
    99c4:	e0833103 	add	r3, r3, r3, lsl #2
    99c8:	e0443083 	sub	r3, r4, r3, lsl #1
    99cc:	e0834083 	add	r4, r3, r3, lsl #1
    99d0:	e3a01007 	mov	r1, #7, 0
    99d4:	e1a07411 	lsl	r7, r1, r4
    99d8:	e2820302 	add	r0, r2, #134217728	; 0x8000000
    99dc:	e2800702 	add	r0, r0, #524288	; 0x80000
    99e0:	e1a05100 	lsl	r5, r0, #2
    99e4:	e1a00005 	mov	r0, r5
    99e8:	ebfff98f 	bl	802c <GET32>
    99ec:	e1c01007 	bic	r1, r0, r7
    99f0:	e1811416 	orr	r1, r1, r6, lsl r4
    99f4:	e1a00005 	mov	r0, r5
    99f8:	ebfff989 	bl	8024 <PUT32>
    99fc:	e8bd81f0 	pop	{r4, r5, r6, r7, r8, pc}
    9a00:	e1a01000 	mov	r1, r0
    9a04:	e59f0018 	ldr	r0, [pc, #24]	; 9a24 <gpio_set_function+0x8c>
    9a08:	eb00000f 	bl	9a4c <gpio_panic>
    9a0c:	eaffffe6 	b	99ac <gpio_set_function+0x14>
    9a10:	e1a01006 	mov	r1, r6
    9a14:	e59f000c 	ldr	r0, [pc, #12]	; 9a28 <gpio_set_function+0x90>
    9a18:	eb00000b 	bl	9a4c <gpio_panic>
    9a1c:	eaffffe4 	b	99b4 <gpio_set_function+0x1c>
    9a20:	cccccccd 	.word	0xcccccccd
    9a24:	0000a508 	.word	0x0000a508
    9a28:	0000a518 	.word	0x0000a518

00009a2c <gpio_set_output>:
    9a2c:	e92d4010 	push	{r4, lr}
    9a30:	e3a01001 	mov	r1, #1, 0
    9a34:	ebffffd7 	bl	9998 <gpio_set_function>
    9a38:	e8bd8010 	pop	{r4, pc}

00009a3c <gpio_set_input>:
    9a3c:	e92d4010 	push	{r4, lr}
    9a40:	e3a01000 	mov	r1, #0, 0
    9a44:	ebffffd3 	bl	9998 <gpio_set_function>
    9a48:	e8bd8010 	pop	{r4, pc}

00009a4c <gpio_panic>:
    9a4c:	e92d000f 	push	{r0, r1, r2, r3}
    9a50:	e92d4010 	push	{r4, lr}
    9a54:	e3a03005 	mov	r3, #5, 0
    9a58:	e59f200c 	ldr	r2, [pc, #12]	; 9a6c <gpio_panic+0x20>
    9a5c:	e59f100c 	ldr	r1, [pc, #12]	; 9a70 <gpio_panic+0x24>
    9a60:	e59f000c 	ldr	r0, [pc, #12]	; 9a74 <gpio_panic+0x28>
    9a64:	ebfffcb6 	bl	8d44 <printk>
    9a68:	ebfffdef 	bl	922c <clean_reboot>
    9a6c:	0000a56c 	.word	0x0000a56c
    9a70:	0000a52c 	.word	0x0000a52c
    9a74:	0000a548 	.word	0x0000a548
