
objs/l1/l2/l3//0-syscall.elf:     file format elf32-littlearm


Disassembly of section .text:

00008000 <__code_start__>:
    8000:	e3a00013 	mov	r0, #19, 0
    8004:	e3800080 	orr	r0, r0, #128, 0	; 0x80
    8008:	e129f000 	msr	CPSR_fc, r0
    800c:	e3a01000 	mov	r1, #0, 0
    8010:	ee071f95 	mcr	15, 0, r1, cr7, cr5, {4}
    8014:	e3a0d302 	mov	sp, #134217728	; 0x8000000
    8018:	e3a0b000 	mov	fp, #0, 0
    801c:	eb000212 	bl	886c <_cstart>
    8020:	eb000275 	bl	89fc <rpi_reboot>

00008024 <PUT32>:
    8024:	e5801000 	str	r1, [r0]
    8028:	e12fff1e 	bx	lr

0000802c <GET32>:
    802c:	e5900000 	ldr	r0, [r0]
    8030:	e12fff1e 	bx	lr

00008034 <BRANCHTO>:
    8034:	e12fff10 	bx	r0

00008038 <interrupt_vector>:
    8038:	e92d4010 	push	{r4, lr}
    803c:	e3a03011 	mov	r3, #17, 0
    8040:	e59f200c 	ldr	r2, [pc, #12]	; 8054 <interrupt_vector+0x1c>
    8044:	e59f100c 	ldr	r1, [pc, #12]	; 8058 <interrupt_vector+0x20>
    8048:	e59f000c 	ldr	r0, [pc, #12]	; 805c <interrupt_vector+0x24>
    804c:	eb0000f2 	bl	841c <printk>
    8050:	eb0001fa 	bl	8840 <clean_reboot>
    8054:	000091c4 	.word	0x000091c4
    8058:	00008f88 	.word	0x00008f88
    805c:	00008f94 	.word	0x00008f94

00008060 <syscall_vector>:
    8060:	e92d4070 	push	{r4, r5, r6, lr}
    8064:	e1a05001 	mov	r5, r1
    8068:	ebffffef 	bl	802c <GET32>
    806c:	e1a04000 	mov	r4, r0
    8070:	e3c064ff 	bic	r6, r0, #-16777216	; 0xff000000
    8074:	e59f105c 	ldr	r1, [pc, #92]	; 80d8 <syscall_vector+0x78>
    8078:	e59f005c 	ldr	r0, [pc, #92]	; 80dc <syscall_vector+0x7c>
    807c:	eb0000e6 	bl	841c <printk>
    8080:	e1a02006 	mov	r2, r6
    8084:	e1a01004 	mov	r1, r4
    8088:	e59f0050 	ldr	r0, [pc, #80]	; 80e0 <syscall_vector+0x80>
    808c:	eb0000e2 	bl	841c <printk>
    8090:	e3560001 	cmp	r6, #1, 0
    8094:	1a000007 	bne	80b8 <syscall_vector+0x58>
    8098:	e59f1038 	ldr	r1, [pc, #56]	; 80d8 <syscall_vector+0x78>
    809c:	e59f0038 	ldr	r0, [pc, #56]	; 80dc <syscall_vector+0x7c>
    80a0:	eb0000dd 	bl	841c <printk>
    80a4:	e1a01005 	mov	r1, r5
    80a8:	e59f0034 	ldr	r0, [pc, #52]	; 80e4 <syscall_vector+0x84>
    80ac:	eb0000da 	bl	841c <printk>
    80b0:	e3a00000 	mov	r0, #0, 0
    80b4:	e8bd8070 	pop	{r4, r5, r6, pc}
    80b8:	e59f1018 	ldr	r1, [pc, #24]	; 80d8 <syscall_vector+0x78>
    80bc:	e59f0018 	ldr	r0, [pc, #24]	; 80dc <syscall_vector+0x7c>
    80c0:	eb0000d5 	bl	841c <printk>
    80c4:	e1a01006 	mov	r1, r6
    80c8:	e59f0018 	ldr	r0, [pc, #24]	; 80e8 <syscall_vector+0x88>
    80cc:	eb0000d2 	bl	841c <printk>
    80d0:	e3e00000 	mvn	r0, #0, 0
    80d4:	e8bd8070 	pop	{r4, r5, r6, pc}
    80d8:	000091d8 	.word	0x000091d8
    80dc:	00008fbc 	.word	0x00008fbc
    80e0:	00008fc8 	.word	0x00008fc8
    80e4:	00008fe0 	.word	0x00008fe0
    80e8:	00008ff0 	.word	0x00008ff0

000080ec <notmain>:
    80ec:	e92d4070 	push	{r4, r5, r6, lr}
    80f0:	e24dd008 	sub	sp, sp, #8, 0
    80f4:	e1a0100d 	mov	r1, sp
    80f8:	e59f0180 	ldr	r0, [pc, #384]	; 8280 <notmain+0x194>
    80fc:	eb0000c6 	bl	841c <printk>
    8100:	e59f117c 	ldr	r1, [pc, #380]	; 8284 <notmain+0x198>
    8104:	e59f017c 	ldr	r0, [pc, #380]	; 8288 <notmain+0x19c>
    8108:	eb0000c3 	bl	841c <printk>
    810c:	e59f0178 	ldr	r0, [pc, #376]	; 828c <notmain+0x1a0>
    8110:	eb0000c1 	bl	841c <printk>
    8114:	e59f0174 	ldr	r0, [pc, #372]	; 8290 <notmain+0x1a4>
    8118:	eb0000bf 	bl	841c <printk>
    811c:	e59f2170 	ldr	r2, [pc, #368]	; 8294 <notmain+0x1a8>
    8120:	e59f3170 	ldr	r3, [pc, #368]	; 8298 <notmain+0x1ac>
    8124:	e1520003 	cmp	r2, r3
    8128:	2a00000d 	bcs	8164 <notmain+0x78>
    812c:	eb000228 	bl	89d4 <disable_interrupts>
    8130:	e3e01000 	mvn	r1, #0, 0
    8134:	e59f0160 	ldr	r0, [pc, #352]	; 829c <notmain+0x1b0>
    8138:	ebffffb9 	bl	8024 <PUT32>
    813c:	e3e01000 	mvn	r1, #0, 0
    8140:	e59f0158 	ldr	r0, [pc, #344]	; 82a0 <notmain+0x1b4>
    8144:	ebffffb6 	bl	8024 <PUT32>
    8148:	eb000225 	bl	89e4 <dev_barrier>
    814c:	e59f2144 	ldr	r2, [pc, #324]	; 8298 <notmain+0x1ac>
    8150:	e59f313c 	ldr	r3, [pc, #316]	; 8294 <notmain+0x1a8>
    8154:	e0422003 	sub	r2, r2, r3
    8158:	e1a02142 	asr	r2, r2, #2
    815c:	e3a03000 	mov	r3, #0, 0
    8160:	ea00000c 	b	8198 <notmain+0xac>
    8164:	e59f3138 	ldr	r3, [pc, #312]	; 82a4 <notmain+0x1b8>
    8168:	e58d3000 	str	r3, [sp]
    816c:	e3a03027 	mov	r3, #39, 0	; 0x27
    8170:	e59f2130 	ldr	r2, [pc, #304]	; 82a8 <notmain+0x1bc>
    8174:	e59f1130 	ldr	r1, [pc, #304]	; 82ac <notmain+0x1c0>
    8178:	e59f0130 	ldr	r0, [pc, #304]	; 82b0 <notmain+0x1c4>
    817c:	eb0000a6 	bl	841c <printk>
    8180:	eb0001ae 	bl	8840 <clean_reboot>
    8184:	e1a01103 	lsl	r1, r3, #2
    8188:	e59f0104 	ldr	r0, [pc, #260]	; 8294 <notmain+0x1a8>
    818c:	e7900103 	ldr	r0, [r0, r3, lsl #2]
    8190:	e5810000 	str	r0, [r1]
    8194:	e2833001 	add	r3, r3, #1, 0
    8198:	e1520003 	cmp	r2, r3
    819c:	8afffff8 	bhi	8184 <notmain+0x98>
    81a0:	e59f60dc 	ldr	r6, [pc, #220]	; 8284 <notmain+0x198>
    81a4:	e59f50dc 	ldr	r5, [pc, #220]	; 8288 <notmain+0x19c>
    81a8:	e1a01006 	mov	r1, r6
    81ac:	e1a00005 	mov	r0, r5
    81b0:	eb000099 	bl	841c <printk>
    81b4:	e59f00f8 	ldr	r0, [pc, #248]	; 82b4 <notmain+0x1c8>
    81b8:	eb000097 	bl	841c <printk>
    81bc:	e59f00f4 	ldr	r0, [pc, #244]	; 82b8 <notmain+0x1cc>
    81c0:	eb000044 	bl	82d8 <syscall_hello>
    81c4:	e1a04000 	mov	r4, r0
    81c8:	e1a01006 	mov	r1, r6
    81cc:	e1a00005 	mov	r0, r5
    81d0:	eb000091 	bl	841c <printk>
    81d4:	e1a01004 	mov	r1, r4
    81d8:	e59f00dc 	ldr	r0, [pc, #220]	; 82bc <notmain+0x1d0>
    81dc:	eb00008e 	bl	841c <printk>
    81e0:	e3540000 	cmp	r4, #0, 0
    81e4:	1a000017 	bne	8248 <notmain+0x15c>
    81e8:	e59f6094 	ldr	r6, [pc, #148]	; 8284 <notmain+0x198>
    81ec:	e59f5094 	ldr	r5, [pc, #148]	; 8288 <notmain+0x19c>
    81f0:	e1a01006 	mov	r1, r6
    81f4:	e1a00005 	mov	r0, r5
    81f8:	eb000087 	bl	841c <printk>
    81fc:	e59f00bc 	ldr	r0, [pc, #188]	; 82c0 <notmain+0x1d4>
    8200:	eb000085 	bl	841c <printk>
    8204:	eb000037 	bl	82e8 <syscall_illegal>
    8208:	e1a04000 	mov	r4, r0
    820c:	e1a01006 	mov	r1, r6
    8210:	e1a00005 	mov	r0, r5
    8214:	eb000080 	bl	841c <printk>
    8218:	e1a01004 	mov	r1, r4
    821c:	e59f00a0 	ldr	r0, [pc, #160]	; 82c4 <notmain+0x1d8>
    8220:	eb00007d 	bl	841c <printk>
    8224:	e3740001 	cmn	r4, #1, 0
    8228:	1a00000d 	bne	8264 <notmain+0x178>
    822c:	e59f1050 	ldr	r1, [pc, #80]	; 8284 <notmain+0x198>
    8230:	e59f0050 	ldr	r0, [pc, #80]	; 8288 <notmain+0x19c>
    8234:	eb000078 	bl	841c <printk>
    8238:	e59f0088 	ldr	r0, [pc, #136]	; 82c8 <notmain+0x1dc>
    823c:	eb000076 	bl	841c <printk>
    8240:	e28dd008 	add	sp, sp, #8, 0
    8244:	e8bd8070 	pop	{r4, r5, r6, pc}
    8248:	e58d4000 	str	r4, [sp]
    824c:	e3a03039 	mov	r3, #57, 0	; 0x39
    8250:	e1a02006 	mov	r2, r6
    8254:	e59f1070 	ldr	r1, [pc, #112]	; 82cc <notmain+0x1e0>
    8258:	e59f0070 	ldr	r0, [pc, #112]	; 82d0 <notmain+0x1e4>
    825c:	eb00006e 	bl	841c <printk>
    8260:	eb000176 	bl	8840 <clean_reboot>
    8264:	e58d4000 	str	r4, [sp]
    8268:	e3a0303f 	mov	r3, #63, 0	; 0x3f
    826c:	e1a02006 	mov	r2, r6
    8270:	e59f1054 	ldr	r1, [pc, #84]	; 82cc <notmain+0x1e0>
    8274:	e59f0058 	ldr	r0, [pc, #88]	; 82d4 <notmain+0x1e8>
    8278:	eb000067 	bl	841c <printk>
    827c:	eb00016f 	bl	8840 <clean_reboot>
    8280:	0000900c 	.word	0x0000900c
    8284:	000091e8 	.word	0x000091e8
    8288:	00008fbc 	.word	0x00008fbc
    828c:	00009024 	.word	0x00009024
    8290:	00009040 	.word	0x00009040
    8294:	0000830c 	.word	0x0000830c
    8298:	0000835c 	.word	0x0000835c
    829c:	2000b21c 	.word	0x2000b21c
    82a0:	2000b220 	.word	0x2000b220
    82a4:	000090ac 	.word	0x000090ac
    82a8:	000091f0 	.word	0x000091f0
    82ac:	00009068 	.word	0x00009068
    82b0:	0000907c 	.word	0x0000907c
    82b4:	000090b8 	.word	0x000090b8
    82b8:	000090d4 	.word	0x000090d4
    82bc:	000090e0 	.word	0x000090e0
    82c0:	00009134 	.word	0x00009134
    82c4:	00009164 	.word	0x00009164
    82c8:	000091b8 	.word	0x000091b8
    82cc:	00008f88 	.word	0x00008f88
    82d0:	00009104 	.word	0x00009104
    82d4:	00009188 	.word	0x00009188

000082d8 <syscall_hello>:
    82d8:	e52de004 	push	{lr}		; (str lr, [sp, #-4]!)
    82dc:	ef000001 	svc	0x00000001
    82e0:	e49de004 	pop	{lr}		; (ldr lr, [sp], #4)
    82e4:	e12fff1e 	bx	lr

000082e8 <syscall_illegal>:
    82e8:	e52de004 	push	{lr}		; (str lr, [sp, #-4]!)
    82ec:	ef000002 	svc	0x00000002
    82f0:	e49de004 	pop	{lr}		; (ldr lr, [sp], #4)
    82f4:	e12fff1e 	bx	lr

000082f8 <run_user_code_asm>:
    82f8:	f1020010 	cps	#16
    82fc:	e3a05000 	mov	r5, #0, 0
    8300:	ee075f95 	mcr	15, 0, r5, cr7, cr5, {4}
    8304:	e1a0d001 	mov	sp, r1
    8308:	e12fff10 	bx	r0

0000830c <_interrupt_table>:
    830c:	e59ff030 	ldr	pc, [pc, #48]	; 8344 <_reset_asm>
    8310:	e59ff030 	ldr	pc, [pc, #48]	; 8348 <_undefined_instruction_asm>
    8314:	e59ff030 	ldr	pc, [pc, #48]	; 834c <_software_interrupt_asm>
    8318:	e59ff030 	ldr	pc, [pc, #48]	; 8350 <_prefetch_abort_asm>
    831c:	e59ff030 	ldr	pc, [pc, #48]	; 8354 <_data_abort_asm>
    8320:	e59ff01c 	ldr	pc, [pc, #28]	; 8344 <_reset_asm>
    8324:	e59ff02c 	ldr	pc, [pc, #44]	; 8358 <_interrupt_asm>

00008328 <fast_interrupt_asm>:
    8328:	e24ee004 	sub	lr, lr, #4, 0
    832c:	e52de004 	push	{lr}		; (str lr, [sp, #-4]!)
    8330:	e92d1fff 	push	{r0, r1, r2, r3, r4, r5, r6, r7, r8, r9, sl, fp, ip}
    8334:	e1a0000e 	mov	r0, lr
    8338:	eb000165 	bl	88d4 <fast_interrupt_vector>
    833c:	e8bd1fff 	pop	{r0, r1, r2, r3, r4, r5, r6, r7, r8, r9, sl, fp, ip}
    8340:	e8fd8000 	ldm	sp!, {pc}^

00008344 <_reset_asm>:
    8344:	000083d8 	.word	0x000083d8

00008348 <_undefined_instruction_asm>:
    8348:	000083e4 	.word	0x000083e4

0000834c <_software_interrupt_asm>:
    834c:	0000839c 	.word	0x0000839c

00008350 <_prefetch_abort_asm>:
    8350:	000083f0 	.word	0x000083f0

00008354 <_data_abort_asm>:
    8354:	000083fc 	.word	0x000083fc

00008358 <_interrupt_asm>:
    8358:	00008380 	.word	0x00008380

0000835c <_interrupt_table_end>:
    835c:	e51ff020 	ldr	pc, [pc, #-32]	; 8344 <_reset_asm>
    8360:	e51ff020 	ldr	pc, [pc, #-32]	; 8348 <_undefined_instruction_asm>
    8364:	e59ff010 	ldr	pc, [pc, #16]	; 837c <_software_interrupt_asm_user>
    8368:	e51ff020 	ldr	pc, [pc, #-32]	; 8350 <_prefetch_abort_asm>
    836c:	e51ff020 	ldr	pc, [pc, #-32]	; 8354 <_data_abort_asm>
    8370:	e51ff034 	ldr	pc, [pc, #-52]	; 8344 <_reset_asm>
    8374:	e51ff024 	ldr	pc, [pc, #-36]	; 8358 <_interrupt_asm>
    8378:	e51ff058 	ldr	pc, [pc, #-88]	; 8328 <fast_interrupt_asm>

0000837c <_software_interrupt_asm_user>:
    837c:	000083b8 	.word	0x000083b8

00008380 <_interrupt_table_user_end>:
    8380:	e3a0d409 	mov	sp, #150994944	; 0x9000000
    8384:	e24ee004 	sub	lr, lr, #4, 0
    8388:	e92d5fff 	push	{r0, r1, r2, r3, r4, r5, r6, r7, r8, r9, sl, fp, ip, lr}
    838c:	e1a0000e 	mov	r0, lr
    8390:	ebffff28 	bl	8038 <interrupt_vector>
    8394:	e8bd5fff 	pop	{r0, r1, r2, r3, r4, r5, r6, r7, r8, r9, sl, fp, ip, lr}
    8398:	e1b0f00e 	movs	pc, lr

0000839c <software_interrupt_asm>:
    839c:	e92d400e 	push	{r1, r2, r3, lr}
    83a0:	e24ee004 	sub	lr, lr, #4, 0
    83a4:	e1a01000 	mov	r1, r0
    83a8:	e1a0000e 	mov	r0, lr
    83ac:	ebffff2b 	bl	8060 <syscall_vector>
    83b0:	e8bd400e 	pop	{r1, r2, r3, lr}
    83b4:	e1b0f00e 	movs	pc, lr

000083b8 <software_interrupt_asm_user>:
    83b8:	e3a0d409 	mov	sp, #150994944	; 0x9000000
    83bc:	e92d400e 	push	{r1, r2, r3, lr}
    83c0:	e24ee004 	sub	lr, lr, #4, 0
    83c4:	e1a01000 	mov	r1, r0
    83c8:	e1a0000e 	mov	r0, lr
    83cc:	ebffff23 	bl	8060 <syscall_vector>
    83d0:	e8bd400e 	pop	{r1, r2, r3, lr}
    83d4:	e1b0f00e 	movs	pc, lr

000083d8 <reset_asm>:
    83d8:	e3a0d409 	mov	sp, #150994944	; 0x9000000
    83dc:	e24e0004 	sub	r0, lr, #4, 0
    83e0:	eb00015f 	bl	8964 <reset_vector>

000083e4 <undefined_instruction_asm>:
    83e4:	e3a0d409 	mov	sp, #150994944	; 0x9000000
    83e8:	e24e0004 	sub	r0, lr, #4, 0
    83ec:	eb000168 	bl	8994 <undefined_instruction_vector>

000083f0 <prefetch_abort_asm>:
    83f0:	e3a0d409 	mov	sp, #150994944	; 0x9000000
    83f4:	e24e0004 	sub	r0, lr, #4, 0
    83f8:	eb00014d 	bl	8934 <prefetch_abort_vector>

000083fc <data_abort_asm>:
    83fc:	e3a0d409 	mov	sp, #150994944	; 0x9000000
    8400:	e24e0004 	sub	r0, lr, #4, 0
    8404:	eb000126 	bl	88a4 <data_abort_vector>

00008408 <get_super_lr>:
    8408:	e10f1000 	mrs	r1, CPSR
    840c:	e321f013 	msr	CPSR_c, #19, 0
    8410:	e1a0000e 	mov	r0, lr
    8414:	e121f001 	msr	CPSR_c, r1
    8418:	e12fff1e 	bx	lr

0000841c <printk>:
    841c:	e92d000f 	push	{r0, r1, r2, r3}
    8420:	e52de004 	push	{lr}		; (str lr, [sp, #-4]!)
    8424:	e24dd00c 	sub	sp, sp, #12, 0
    8428:	e28d1014 	add	r1, sp, #20, 0
    842c:	e58d1004 	str	r1, [sp, #4]
    8430:	e59d0010 	ldr	r0, [sp, #16]
    8434:	eb000047 	bl	8558 <vprintk>
    8438:	e28dd00c 	add	sp, sp, #12, 0
    843c:	e49de004 	pop	{lr}		; (ldr lr, [sp], #4)
    8440:	e28dd010 	add	sp, sp, #16, 0
    8444:	e12fff1e 	bx	lr

00008448 <emit_val>:
    8448:	e92d4010 	push	{r4, lr}
    844c:	e24dd030 	sub	sp, sp, #48, 0	; 0x30
    8450:	e350000a 	cmp	r0, #10, 0
    8454:	0a000014 	beq	84ac <emit_val+0x64>
    8458:	e3500010 	cmp	r0, #16, 0
    845c:	0a000022 	beq	84ec <emit_val+0xa4>
    8460:	e3500002 	cmp	r0, #2, 0
    8464:	0a000006 	beq	8484 <emit_val+0x3c>
    8468:	e58d0000 	str	r0, [sp]
    846c:	e3a0301b 	mov	r3, #27, 0
    8470:	e59f20c0 	ldr	r2, [pc, #192]	; 8538 <emit_val+0xf0>
    8474:	e59f10c0 	ldr	r1, [pc, #192]	; 853c <emit_val+0xf4>
    8478:	e59f00c0 	ldr	r0, [pc, #192]	; 8540 <emit_val+0xf8>
    847c:	ebffffe6 	bl	841c <printk>
    8480:	eb0000ee 	bl	8840 <clean_reboot>
    8484:	e28d400c 	add	r4, sp, #12, 0
    8488:	e2012001 	and	r2, r1, #1, 0
    848c:	e59f00b0 	ldr	r0, [pc, #176]	; 8544 <emit_val+0xfc>
    8490:	e7d02002 	ldrb	r2, [r0, r2]
    8494:	e5c42000 	strb	r2, [r4]
    8498:	e2844001 	add	r4, r4, #1, 0
    849c:	e3510001 	cmp	r1, #1, 0
    84a0:	e1a010a1 	lsr	r1, r1, #1
    84a4:	8afffff7 	bhi	8488 <emit_val+0x40>
    84a8:	ea00001d 	b	8524 <emit_val+0xdc>
    84ac:	e28d400c 	add	r4, sp, #12, 0
    84b0:	e59f3090 	ldr	r3, [pc, #144]	; 8548 <emit_val+0x100>
    84b4:	e0832193 	umull	r2, r3, r3, r1
    84b8:	e1a031a3 	lsr	r3, r3, #3
    84bc:	e1a00003 	mov	r0, r3
    84c0:	e0833103 	add	r3, r3, r3, lsl #2
    84c4:	e0413083 	sub	r3, r1, r3, lsl #1
    84c8:	e59fc07c 	ldr	ip, [pc, #124]	; 854c <emit_val+0x104>
    84cc:	e7dcc003 	ldrb	ip, [ip, r3]
    84d0:	e5c4c000 	strb	ip, [r4]
    84d4:	e2844001 	add	r4, r4, #1, 0
    84d8:	e1a03001 	mov	r3, r1
    84dc:	e1a01000 	mov	r1, r0
    84e0:	e3530009 	cmp	r3, #9, 0
    84e4:	8afffff1 	bhi	84b0 <emit_val+0x68>
    84e8:	ea00000d 	b	8524 <emit_val+0xdc>
    84ec:	e28d400c 	add	r4, sp, #12, 0
    84f0:	e201200f 	and	r2, r1, #15, 0
    84f4:	e59f0054 	ldr	r0, [pc, #84]	; 8550 <emit_val+0x108>
    84f8:	e7d02002 	ldrb	r2, [r0, r2]
    84fc:	e5c42000 	strb	r2, [r4]
    8500:	e2844001 	add	r4, r4, #1, 0
    8504:	e351000f 	cmp	r1, #15, 0
    8508:	e1a01221 	lsr	r1, r1, #4
    850c:	8afffff7 	bhi	84f0 <emit_val+0xa8>
    8510:	ea000003 	b	8524 <emit_val+0xdc>
    8514:	e59f3038 	ldr	r3, [pc, #56]	; 8554 <emit_val+0x10c>
    8518:	e5933000 	ldr	r3, [r3]
    851c:	e5740001 	ldrb	r0, [r4, #-1]!
    8520:	e12fff33 	blx	r3
    8524:	e28d300c 	add	r3, sp, #12, 0
    8528:	e1540003 	cmp	r4, r3
    852c:	8afffff8 	bhi	8514 <emit_val+0xcc>
    8530:	e28dd030 	add	sp, sp, #48, 0	; 0x30
    8534:	e8bd8010 	pop	{r4, pc}
    8538:	000092bc 	.word	0x000092bc
    853c:	00009204 	.word	0x00009204
    8540:	00009214 	.word	0x00009214
    8544:	00009238 	.word	0x00009238
    8548:	cccccccd 	.word	0xcccccccd
    854c:	0000923c 	.word	0x0000923c
    8550:	00009248 	.word	0x00009248
    8554:	0000959c 	.word	0x0000959c

00008558 <vprintk>:
    8558:	e92d4030 	push	{r4, r5, lr}
    855c:	e24dd014 	sub	sp, sp, #20, 0
    8560:	e1a04000 	mov	r4, r0
    8564:	e58d100c 	str	r1, [sp, #12]
    8568:	ea000003 	b	857c <vprintk+0x24>
    856c:	e59f3288 	ldr	r3, [pc, #648]	; 87fc <vprintk+0x2a4>
    8570:	e5933000 	ldr	r3, [r3]
    8574:	e12fff33 	blx	r3
    8578:	e2844001 	add	r4, r4, #1, 0
    857c:	e5d40000 	ldrb	r0, [r4]
    8580:	e3500000 	cmp	r0, #0, 0
    8584:	0a00009a 	beq	87f4 <vprintk+0x29c>
    8588:	e3500025 	cmp	r0, #37, 0	; 0x25
    858c:	1afffff6 	bne	856c <vprintk+0x14>
    8590:	e2845001 	add	r5, r4, #1, 0
    8594:	e5d42001 	ldrb	r2, [r4, #1]
    8598:	e2423062 	sub	r3, r2, #98, 0	; 0x62
    859c:	e3530016 	cmp	r3, #22, 0
    85a0:	979ff103 	ldrls	pc, [pc, r3, lsl #2]
    85a4:	ea00008b 	b	87d8 <vprintk+0x280>
    85a8:	00008604 	.word	0x00008604
    85ac:	00008644 	.word	0x00008644
    85b0:	0000875c 	.word	0x0000875c
    85b4:	000087d8 	.word	0x000087d8
    85b8:	000087d8 	.word	0x000087d8
    85bc:	000087d8 	.word	0x000087d8
    85c0:	000087d8 	.word	0x000087d8
    85c4:	000087d8 	.word	0x000087d8
    85c8:	000087d8 	.word	0x000087d8
    85cc:	000087d8 	.word	0x000087d8
    85d0:	00008668 	.word	0x00008668
    85d4:	000087d8 	.word	0x000087d8
    85d8:	000087d8 	.word	0x000087d8
    85dc:	000087d8 	.word	0x000087d8
    85e0:	00008720 	.word	0x00008720
    85e4:	000087d8 	.word	0x000087d8
    85e8:	000087d8 	.word	0x000087d8
    85ec:	000087a0 	.word	0x000087a0
    85f0:	000087d8 	.word	0x000087d8
    85f4:	00008624 	.word	0x00008624
    85f8:	000087d8 	.word	0x000087d8
    85fc:	000087d8 	.word	0x000087d8
    8600:	00008720 	.word	0x00008720
    8604:	e59d300c 	ldr	r3, [sp, #12]
    8608:	e2832004 	add	r2, r3, #4, 0
    860c:	e58d200c 	str	r2, [sp, #12]
    8610:	e5931000 	ldr	r1, [r3]
    8614:	e3a00002 	mov	r0, #2, 0
    8618:	ebffff8a 	bl	8448 <emit_val>
    861c:	e1a04005 	mov	r4, r5
    8620:	eaffffd4 	b	8578 <vprintk+0x20>
    8624:	e59d300c 	ldr	r3, [sp, #12]
    8628:	e2832004 	add	r2, r3, #4, 0
    862c:	e58d200c 	str	r2, [sp, #12]
    8630:	e5931000 	ldr	r1, [r3]
    8634:	e3a0000a 	mov	r0, #10, 0
    8638:	ebffff82 	bl	8448 <emit_val>
    863c:	e1a04005 	mov	r4, r5
    8640:	eaffffcc 	b	8578 <vprintk+0x20>
    8644:	e59f31b0 	ldr	r3, [pc, #432]	; 87fc <vprintk+0x2a4>
    8648:	e5932000 	ldr	r2, [r3]
    864c:	e59d300c 	ldr	r3, [sp, #12]
    8650:	e2831004 	add	r1, r3, #4, 0
    8654:	e58d100c 	str	r1, [sp, #12]
    8658:	e5930000 	ldr	r0, [r3]
    865c:	e12fff32 	blx	r2
    8660:	e1a04005 	mov	r4, r5
    8664:	eaffffc3 	b	8578 <vprintk+0x20>
    8668:	e2842002 	add	r2, r4, #2, 0
    866c:	e5d43002 	ldrb	r3, [r4, #2]
    8670:	e353006c 	cmp	r3, #108, 0	; 0x6c
    8674:	1a000018 	bne	86dc <vprintk+0x184>
    8678:	e2845003 	add	r5, r4, #3, 0
    867c:	e5d43003 	ldrb	r3, [r4, #3]
    8680:	e3530078 	cmp	r3, #120, 0	; 0x78
    8684:	1a00001b 	bne	86f8 <vprintk+0x1a0>
    8688:	e59f416c 	ldr	r4, [pc, #364]	; 87fc <vprintk+0x2a4>
    868c:	e5943000 	ldr	r3, [r4]
    8690:	e3a00030 	mov	r0, #48, 0	; 0x30
    8694:	e12fff33 	blx	r3
    8698:	e5943000 	ldr	r3, [r4]
    869c:	e3a00078 	mov	r0, #120, 0	; 0x78
    86a0:	e12fff33 	blx	r3
    86a4:	e59d300c 	ldr	r3, [sp, #12]
    86a8:	e2833007 	add	r3, r3, #7, 0
    86ac:	e3c33007 	bic	r3, r3, #7, 0
    86b0:	e2832008 	add	r2, r3, #8, 0
    86b4:	e58d200c 	str	r2, [sp, #12]
    86b8:	e5934000 	ldr	r4, [r3]
    86bc:	e5931004 	ldr	r1, [r3, #4]
    86c0:	e3510000 	cmp	r1, #0, 0
    86c4:	1a000012 	bne	8714 <vprintk+0x1bc>
    86c8:	e1a01004 	mov	r1, r4
    86cc:	e3a00010 	mov	r0, #16, 0
    86d0:	ebffff5c 	bl	8448 <emit_val>
    86d4:	e1a04005 	mov	r4, r5
    86d8:	eaffffa6 	b	8578 <vprintk+0x20>
    86dc:	e58d2000 	str	r2, [sp]
    86e0:	e3a0303b 	mov	r3, #59, 0	; 0x3b
    86e4:	e59f2114 	ldr	r2, [pc, #276]	; 8800 <vprintk+0x2a8>
    86e8:	e59f1114 	ldr	r1, [pc, #276]	; 8804 <vprintk+0x2ac>
    86ec:	e59f0114 	ldr	r0, [pc, #276]	; 8808 <vprintk+0x2b0>
    86f0:	ebffff49 	bl	841c <printk>
    86f4:	eb000051 	bl	8840 <clean_reboot>
    86f8:	e58d5000 	str	r5, [sp]
    86fc:	e3a0303e 	mov	r3, #62, 0	; 0x3e
    8700:	e59f20f8 	ldr	r2, [pc, #248]	; 8800 <vprintk+0x2a8>
    8704:	e59f10f8 	ldr	r1, [pc, #248]	; 8804 <vprintk+0x2ac>
    8708:	e59f00f8 	ldr	r0, [pc, #248]	; 8808 <vprintk+0x2b0>
    870c:	ebffff42 	bl	841c <printk>
    8710:	eb00004a 	bl	8840 <clean_reboot>
    8714:	e3a00010 	mov	r0, #16, 0
    8718:	ebffff4a 	bl	8448 <emit_val>
    871c:	eaffffe9 	b	86c8 <vprintk+0x170>
    8720:	e59f40d4 	ldr	r4, [pc, #212]	; 87fc <vprintk+0x2a4>
    8724:	e5943000 	ldr	r3, [r4]
    8728:	e3a00030 	mov	r0, #48, 0	; 0x30
    872c:	e12fff33 	blx	r3
    8730:	e5943000 	ldr	r3, [r4]
    8734:	e3a00078 	mov	r0, #120, 0	; 0x78
    8738:	e12fff33 	blx	r3
    873c:	e59d300c 	ldr	r3, [sp, #12]
    8740:	e2832004 	add	r2, r3, #4, 0
    8744:	e58d200c 	str	r2, [sp, #12]
    8748:	e5931000 	ldr	r1, [r3]
    874c:	e3a00010 	mov	r0, #16, 0
    8750:	ebffff3c 	bl	8448 <emit_val>
    8754:	e1a04005 	mov	r4, r5
    8758:	eaffff86 	b	8578 <vprintk+0x20>
    875c:	e59d300c 	ldr	r3, [sp, #12]
    8760:	e2832004 	add	r2, r3, #4, 0
    8764:	e58d200c 	str	r2, [sp, #12]
    8768:	e5934000 	ldr	r4, [r3]
    876c:	e3540000 	cmp	r4, #0, 0
    8770:	ba000004 	blt	8788 <vprintk+0x230>
    8774:	e1a01004 	mov	r1, r4
    8778:	e3a0000a 	mov	r0, #10, 0
    877c:	ebffff31 	bl	8448 <emit_val>
    8780:	e1a04005 	mov	r4, r5
    8784:	eaffff7b 	b	8578 <vprintk+0x20>
    8788:	e59f306c 	ldr	r3, [pc, #108]	; 87fc <vprintk+0x2a4>
    878c:	e5933000 	ldr	r3, [r3]
    8790:	e3a0002d 	mov	r0, #45, 0	; 0x2d
    8794:	e12fff33 	blx	r3
    8798:	e2644000 	rsb	r4, r4, #0, 0
    879c:	eafffff4 	b	8774 <vprintk+0x21c>
    87a0:	e59d300c 	ldr	r3, [sp, #12]
    87a4:	e2832004 	add	r2, r3, #4, 0
    87a8:	e58d200c 	str	r2, [sp, #12]
    87ac:	e5934000 	ldr	r4, [r3]
    87b0:	e5d40000 	ldrb	r0, [r4]
    87b4:	e3500000 	cmp	r0, #0, 0
    87b8:	0a000004 	beq	87d0 <vprintk+0x278>
    87bc:	e59f3038 	ldr	r3, [pc, #56]	; 87fc <vprintk+0x2a4>
    87c0:	e5933000 	ldr	r3, [r3]
    87c4:	e12fff33 	blx	r3
    87c8:	e2844001 	add	r4, r4, #1, 0
    87cc:	eafffff7 	b	87b0 <vprintk+0x258>
    87d0:	e1a04005 	mov	r4, r5
    87d4:	eaffff67 	b	8578 <vprintk+0x20>
    87d8:	e58d2000 	str	r2, [sp]
    87dc:	e3a03062 	mov	r3, #98, 0	; 0x62
    87e0:	e59f2018 	ldr	r2, [pc, #24]	; 8800 <vprintk+0x2a8>
    87e4:	e59f1018 	ldr	r1, [pc, #24]	; 8804 <vprintk+0x2ac>
    87e8:	e59f001c 	ldr	r0, [pc, #28]	; 880c <vprintk+0x2b4>
    87ec:	ebffff0a 	bl	841c <printk>
    87f0:	eb000012 	bl	8840 <clean_reboot>
    87f4:	e28dd014 	add	sp, sp, #20, 0
    87f8:	e8bd8030 	pop	{r4, r5, pc}
    87fc:	0000959c 	.word	0x0000959c
    8800:	000092c8 	.word	0x000092c8
    8804:	00009204 	.word	0x00009204
    8808:	0000925c 	.word	0x0000925c
    880c:	00009294 	.word	0x00009294

00008810 <default_putchar>:
    8810:	e92d4010 	push	{r4, lr}
    8814:	e1a04000 	mov	r4, r0
    8818:	e6ef0070 	uxtb	r0, r0
    881c:	eb000102 	bl	8c2c <uart_put8>
    8820:	e1a00004 	mov	r0, r4
    8824:	e8bd8010 	pop	{r4, pc}

00008828 <rpi_putchar_set>:
    8828:	e59f300c 	ldr	r3, [pc, #12]	; 883c <rpi_putchar_set+0x14>
    882c:	e5932000 	ldr	r2, [r3]
    8830:	e5830000 	str	r0, [r3]
    8834:	e1a00002 	mov	r0, r2
    8838:	e12fff1e 	bx	lr
    883c:	0000959c 	.word	0x0000959c

00008840 <clean_reboot>:
    8840:	e92d4010 	push	{r4, lr}
    8844:	e59f0010 	ldr	r0, [pc, #16]	; 885c <clean_reboot+0x1c>
    8848:	eb0001b5 	bl	8f24 <putk>
    884c:	eb000111 	bl	8c98 <uart_flush_tx>
    8850:	e3a0000a 	mov	r0, #10, 0
    8854:	eb00008c 	bl	8a8c <delay_ms>
    8858:	eb000067 	bl	89fc <rpi_reboot>
    885c:	000092d0 	.word	0x000092d0

00008860 <program_end>:
    8860:	e59f0000 	ldr	r0, [pc]	; 8868 <program_end+0x8>
    8864:	e12fff1e 	bx	lr
    8868:	000095a0 	.word	0x000095a0

0000886c <_cstart>:
    886c:	e92d4010 	push	{r4, lr}
    8870:	e59f3024 	ldr	r3, [pc, #36]	; 889c <_cstart+0x30>
    8874:	e59f2024 	ldr	r2, [pc, #36]	; 88a0 <_cstart+0x34>
    8878:	e1530002 	cmp	r3, r2
    887c:	33a02000 	movcc	r2, #0, 0
    8880:	34c32001 	strbcc	r2, [r3], #1
    8884:	3afffffa 	bcc	8874 <_cstart+0x8>
    8888:	eb00009b 	bl	8afc <uart_init>
    888c:	e3a03001 	mov	r3, #1, 0
    8890:	ee0f3f1c 	mcr	15, 0, r3, cr15, cr12, {0}
    8894:	ebfffe14 	bl	80ec <notmain>
    8898:	ebffffe8 	bl	8840 <clean_reboot>
    889c:	000095a0 	.word	0x000095a0
    88a0:	000095a0 	.word	0x000095a0

000088a4 <data_abort_vector>:
    88a4:	e52de004 	push	{lr}		; (str lr, [sp, #-4]!)
    88a8:	e24dd00c 	sub	sp, sp, #12, 0
    88ac:	e58d0000 	str	r0, [sp]
    88b0:	e3a03003 	mov	r3, #3, 0
    88b4:	e59f200c 	ldr	r2, [pc, #12]	; 88c8 <data_abort_vector+0x24>
    88b8:	e59f100c 	ldr	r1, [pc, #12]	; 88cc <data_abort_vector+0x28>
    88bc:	e59f000c 	ldr	r0, [pc, #12]	; 88d0 <data_abort_vector+0x2c>
    88c0:	ebfffed5 	bl	841c <printk>
    88c4:	ebffffdd 	bl	8840 <clean_reboot>
    88c8:	00009338 	.word	0x00009338
    88cc:	000092dc 	.word	0x000092dc
    88d0:	00009308 	.word	0x00009308

000088d4 <fast_interrupt_vector>:
    88d4:	e52de004 	push	{lr}		; (str lr, [sp, #-4]!)
    88d8:	e24dd00c 	sub	sp, sp, #12, 0
    88dc:	e58d0000 	str	r0, [sp]
    88e0:	e3a03003 	mov	r3, #3, 0
    88e4:	e59f200c 	ldr	r2, [pc, #12]	; 88f8 <fast_interrupt_vector+0x24>
    88e8:	e59f100c 	ldr	r1, [pc, #12]	; 88fc <fast_interrupt_vector+0x28>
    88ec:	e59f000c 	ldr	r0, [pc, #12]	; 8900 <fast_interrupt_vector+0x2c>
    88f0:	ebfffec9 	bl	841c <printk>
    88f4:	ebffffd1 	bl	8840 <clean_reboot>
    88f8:	000093a4 	.word	0x000093a4
    88fc:	0000934c 	.word	0x0000934c
    8900:	00009370 	.word	0x00009370

00008904 <fiq_vector>:
    8904:	e52de004 	push	{lr}		; (str lr, [sp, #-4]!)
    8908:	e24dd00c 	sub	sp, sp, #12, 0
    890c:	e58d0000 	str	r0, [sp]
    8910:	e3a03006 	mov	r3, #6, 0
    8914:	e59f200c 	ldr	r2, [pc, #12]	; 8928 <fiq_vector+0x24>
    8918:	e59f100c 	ldr	r1, [pc, #12]	; 892c <fiq_vector+0x28>
    891c:	e59f000c 	ldr	r0, [pc, #12]	; 8930 <fiq_vector+0x2c>
    8920:	ebfffebd 	bl	841c <printk>
    8924:	ebffffc5 	bl	8840 <clean_reboot>
    8928:	000093bc 	.word	0x000093bc
    892c:	0000934c 	.word	0x0000934c
    8930:	00009370 	.word	0x00009370

00008934 <prefetch_abort_vector>:
    8934:	e52de004 	push	{lr}		; (str lr, [sp, #-4]!)
    8938:	e24dd00c 	sub	sp, sp, #12, 0
    893c:	e58d0000 	str	r0, [sp]
    8940:	e3a03003 	mov	r3, #3, 0
    8944:	e59f200c 	ldr	r2, [pc, #12]	; 8958 <prefetch_abort_vector+0x24>
    8948:	e59f100c 	ldr	r1, [pc, #12]	; 895c <prefetch_abort_vector+0x28>
    894c:	e59f000c 	ldr	r0, [pc, #12]	; 8960 <prefetch_abort_vector+0x2c>
    8950:	ebfffeb1 	bl	841c <printk>
    8954:	ebffffb9 	bl	8840 <clean_reboot>
    8958:	00009420 	.word	0x00009420
    895c:	000093c8 	.word	0x000093c8
    8960:	000093f0 	.word	0x000093f0

00008964 <reset_vector>:
    8964:	e52de004 	push	{lr}		; (str lr, [sp, #-4]!)
    8968:	e24dd00c 	sub	sp, sp, #12, 0
    896c:	e58d0000 	str	r0, [sp]
    8970:	e3a03003 	mov	r3, #3, 0
    8974:	e59f200c 	ldr	r2, [pc, #12]	; 8988 <reset_vector+0x24>
    8978:	e59f100c 	ldr	r1, [pc, #12]	; 898c <reset_vector+0x28>
    897c:	e59f000c 	ldr	r0, [pc, #12]	; 8990 <reset_vector+0x2c>
    8980:	ebfffea5 	bl	841c <printk>
    8984:	ebffffad 	bl	8840 <clean_reboot>
    8988:	00009490 	.word	0x00009490
    898c:	00009438 	.word	0x00009438
    8990:	0000945c 	.word	0x0000945c

00008994 <undefined_instruction_vector>:
    8994:	e52de004 	push	{lr}		; (str lr, [sp, #-4]!)
    8998:	e24dd00c 	sub	sp, sp, #12, 0
    899c:	e58d0000 	str	r0, [sp]
    89a0:	e3a03003 	mov	r3, #3, 0
    89a4:	e59f200c 	ldr	r2, [pc, #12]	; 89b8 <undefined_instruction_vector+0x24>
    89a8:	e59f100c 	ldr	r1, [pc, #12]	; 89bc <undefined_instruction_vector+0x28>
    89ac:	e59f000c 	ldr	r0, [pc, #12]	; 89c0 <undefined_instruction_vector+0x2c>
    89b0:	ebfffe99 	bl	841c <printk>
    89b4:	ebffffa1 	bl	8840 <clean_reboot>
    89b8:	0000950c 	.word	0x0000950c
    89bc:	000094a0 	.word	0x000094a0
    89c0:	000094d0 	.word	0x000094d0

000089c4 <enable_interrupts>:
    89c4:	e10f0000 	mrs	r0, CPSR
    89c8:	e3c00080 	bic	r0, r0, #128, 0	; 0x80
    89cc:	e121f000 	msr	CPSR_c, r0
    89d0:	e12fff1e 	bx	lr

000089d4 <disable_interrupts>:
    89d4:	e10f0000 	mrs	r0, CPSR
    89d8:	e3800080 	orr	r0, r0, #128, 0	; 0x80
    89dc:	e121f000 	msr	CPSR_c, r0
    89e0:	e12fff1e 	bx	lr

000089e4 <dev_barrier>:
    89e4:	ea000002 	b	89f4 <dsb>

000089e8 <dmb>:
    89e8:	e3a00000 	mov	r0, #0, 0
    89ec:	ee070fba 	mcr	15, 0, r0, cr7, cr10, {5}
    89f0:	e12fff1e 	bx	lr

000089f4 <dsb>:
    89f4:	ee070f9a 	mcr	15, 0, r0, cr7, cr10, {4}
    89f8:	e12fff1e 	bx	lr

000089fc <rpi_reboot>:
    89fc:	e92d4010 	push	{r4, lr}
    8a00:	eb0000a4 	bl	8c98 <uart_flush_tx>
    8a04:	e3a0000a 	mov	r0, #10, 0
    8a08:	eb00001f 	bl	8a8c <delay_ms>
    8a0c:	e59f1014 	ldr	r1, [pc, #20]	; 8a28 <rpi_reboot+0x2c>
    8a10:	e59f0014 	ldr	r0, [pc, #20]	; 8a2c <rpi_reboot+0x30>
    8a14:	ebfffd82 	bl	8024 <PUT32>
    8a18:	e59f1010 	ldr	r1, [pc, #16]	; 8a30 <rpi_reboot+0x34>
    8a1c:	e59f0010 	ldr	r0, [pc, #16]	; 8a34 <rpi_reboot+0x38>
    8a20:	ebfffd7f 	bl	8024 <PUT32>
    8a24:	eafffffe 	b	8a24 <rpi_reboot+0x28>
    8a28:	5a000001 	.word	0x5a000001
    8a2c:	20100024 	.word	0x20100024
    8a30:	5a000020 	.word	0x5a000020
    8a34:	2010001c 	.word	0x2010001c

00008a38 <timer_get_usec_raw>:
    8a38:	e92d4010 	push	{r4, lr}
    8a3c:	e59f0004 	ldr	r0, [pc, #4]	; 8a48 <timer_get_usec_raw+0x10>
    8a40:	ebfffd79 	bl	802c <GET32>
    8a44:	e8bd8010 	pop	{r4, pc}
    8a48:	20003004 	.word	0x20003004

00008a4c <timer_get_usec>:
    8a4c:	e92d4010 	push	{r4, lr}
    8a50:	ebffffe3 	bl	89e4 <dev_barrier>
    8a54:	ebfffff7 	bl	8a38 <timer_get_usec_raw>
    8a58:	e1a04000 	mov	r4, r0
    8a5c:	ebffffe0 	bl	89e4 <dev_barrier>
    8a60:	e1a00004 	mov	r0, r4
    8a64:	e8bd8010 	pop	{r4, pc}

00008a68 <delay_us>:
    8a68:	e92d4070 	push	{r4, r5, r6, lr}
    8a6c:	e1a05000 	mov	r5, r0
    8a70:	ebfffff5 	bl	8a4c <timer_get_usec>
    8a74:	e1a04000 	mov	r4, r0
    8a78:	ebfffff3 	bl	8a4c <timer_get_usec>
    8a7c:	e0400004 	sub	r0, r0, r4
    8a80:	e1500005 	cmp	r0, r5
    8a84:	3afffffb 	bcc	8a78 <delay_us+0x10>
    8a88:	e8bd8070 	pop	{r4, r5, r6, pc}

00008a8c <delay_ms>:
    8a8c:	e92d4010 	push	{r4, lr}
    8a90:	e0603280 	rsb	r3, r0, r0, lsl #5
    8a94:	e0800103 	add	r0, r0, r3, lsl #2
    8a98:	e1a00180 	lsl	r0, r0, #3
    8a9c:	ebfffff1 	bl	8a68 <delay_us>
    8aa0:	e8bd8010 	pop	{r4, pc}

00008aa4 <delay_sec>:
    8aa4:	e92d4010 	push	{r4, lr}
    8aa8:	e0603280 	rsb	r3, r0, r0, lsl #5
    8aac:	e0800103 	add	r0, r0, r3, lsl #2
    8ab0:	e1a00180 	lsl	r0, r0, #3
    8ab4:	ebfffff4 	bl	8a8c <delay_ms>
    8ab8:	e8bd8010 	pop	{r4, pc}

00008abc <and_in32>:
    8abc:	e92d4070 	push	{r4, r5, r6, lr}
    8ac0:	e1a04000 	mov	r4, r0
    8ac4:	e1a05001 	mov	r5, r1
    8ac8:	ebfffd57 	bl	802c <GET32>
    8acc:	e0001005 	and	r1, r0, r5
    8ad0:	e1a00004 	mov	r0, r4
    8ad4:	ebfffd52 	bl	8024 <PUT32>
    8ad8:	e8bd8070 	pop	{r4, r5, r6, pc}

00008adc <or_in32>:
    8adc:	e92d4070 	push	{r4, r5, r6, lr}
    8ae0:	e1a04000 	mov	r4, r0
    8ae4:	e1a05001 	mov	r5, r1
    8ae8:	ebfffd4f 	bl	802c <GET32>
    8aec:	e1801005 	orr	r1, r0, r5
    8af0:	e1a00004 	mov	r0, r4
    8af4:	ebfffd4a 	bl	8024 <PUT32>
    8af8:	e8bd8070 	pop	{r4, r5, r6, pc}

00008afc <uart_init>:
    8afc:	e92d4010 	push	{r4, lr}
    8b00:	ebffffb7 	bl	89e4 <dev_barrier>
    8b04:	e3a01002 	mov	r1, #2, 0
    8b08:	e3a0000e 	mov	r0, #14, 0
    8b0c:	eb0000d7 	bl	8e70 <gpio_set_function>
    8b10:	e3a01002 	mov	r1, #2, 0
    8b14:	e3a0000f 	mov	r0, #15, 0
    8b18:	eb0000d4 	bl	8e70 <gpio_set_function>
    8b1c:	ebffffb0 	bl	89e4 <dev_barrier>
    8b20:	e3a01001 	mov	r1, #1, 0
    8b24:	e59f0064 	ldr	r0, [pc, #100]	; 8b90 <uart_init+0x94>
    8b28:	ebffffeb 	bl	8adc <or_in32>
    8b2c:	ebffffac 	bl	89e4 <dev_barrier>
    8b30:	e59f405c 	ldr	r4, [pc, #92]	; 8b94 <uart_init+0x98>
    8b34:	e3a01000 	mov	r1, #0, 0
    8b38:	e1a00004 	mov	r0, r4
    8b3c:	ebfffd38 	bl	8024 <PUT32>
    8b40:	e3a01000 	mov	r1, #0, 0
    8b44:	e59f004c 	ldr	r0, [pc, #76]	; 8b98 <uart_init+0x9c>
    8b48:	ebfffd35 	bl	8024 <PUT32>
    8b4c:	e3a01003 	mov	r1, #3, 0
    8b50:	e59f0044 	ldr	r0, [pc, #68]	; 8b9c <uart_init+0xa0>
    8b54:	ebfffd32 	bl	8024 <PUT32>
    8b58:	e3a01000 	mov	r1, #0, 0
    8b5c:	e59f003c 	ldr	r0, [pc, #60]	; 8ba0 <uart_init+0xa4>
    8b60:	ebfffd2f 	bl	8024 <PUT32>
    8b64:	e3a01006 	mov	r1, #6, 0
    8b68:	e59f0034 	ldr	r0, [pc, #52]	; 8ba4 <uart_init+0xa8>
    8b6c:	ebfffd2c 	bl	8024 <PUT32>
    8b70:	e59f1030 	ldr	r1, [pc, #48]	; 8ba8 <uart_init+0xac>
    8b74:	e59f0030 	ldr	r0, [pc, #48]	; 8bac <uart_init+0xb0>
    8b78:	ebfffd29 	bl	8024 <PUT32>
    8b7c:	e3a01003 	mov	r1, #3, 0
    8b80:	e1a00004 	mov	r0, r4
    8b84:	ebfffd26 	bl	8024 <PUT32>
    8b88:	ebffff95 	bl	89e4 <dev_barrier>
    8b8c:	e8bd8010 	pop	{r4, pc}
    8b90:	20215004 	.word	0x20215004
    8b94:	20215060 	.word	0x20215060
    8b98:	20215044 	.word	0x20215044
    8b9c:	2021504c 	.word	0x2021504c
    8ba0:	20215050 	.word	0x20215050
    8ba4:	20215048 	.word	0x20215048
    8ba8:	0000010e 	.word	0x0000010e
    8bac:	20215068 	.word	0x20215068

00008bb0 <uart_can_getc>:
    8bb0:	e92d4010 	push	{r4, lr}
    8bb4:	e59f0008 	ldr	r0, [pc, #8]	; 8bc4 <uart_can_getc+0x14>
    8bb8:	ebfffd1b 	bl	802c <GET32>
    8bbc:	e2000001 	and	r0, r0, #1, 0
    8bc0:	e8bd8010 	pop	{r4, pc}
    8bc4:	20215054 	.word	0x20215054

00008bc8 <uart_can_putc>:
    8bc8:	e92d4010 	push	{r4, lr}
    8bcc:	e59f0010 	ldr	r0, [pc, #16]	; 8be4 <uart_can_putc+0x1c>
    8bd0:	ebfffd15 	bl	802c <GET32>
    8bd4:	e3100020 	tst	r0, #32, 0
    8bd8:	13a00001 	movne	r0, #1, 0
    8bdc:	03a00000 	moveq	r0, #0, 0
    8be0:	e8bd8010 	pop	{r4, pc}
    8be4:	20215054 	.word	0x20215054

00008be8 <uart_can_put8>:
    8be8:	e92d4010 	push	{r4, lr}
    8bec:	ebfffff5 	bl	8bc8 <uart_can_putc>
    8bf0:	e8bd8010 	pop	{r4, pc}

00008bf4 <uart_get8>:
    8bf4:	e92d4010 	push	{r4, lr}
    8bf8:	ebffff79 	bl	89e4 <dev_barrier>
    8bfc:	ea000000 	b	8c04 <uart_get8+0x10>
    8c00:	eb0000df 	bl	8f84 <rpi_wait>
    8c04:	ebffffe9 	bl	8bb0 <uart_can_getc>
    8c08:	e3500000 	cmp	r0, #0, 0
    8c0c:	0afffffb 	beq	8c00 <uart_get8+0xc>
    8c10:	e59f0010 	ldr	r0, [pc, #16]	; 8c28 <uart_get8+0x34>
    8c14:	ebfffd04 	bl	802c <GET32>
    8c18:	e6ef4070 	uxtb	r4, r0
    8c1c:	ebffff70 	bl	89e4 <dev_barrier>
    8c20:	e1a00004 	mov	r0, r4
    8c24:	e8bd8010 	pop	{r4, pc}
    8c28:	20215040 	.word	0x20215040

00008c2c <uart_put8>:
    8c2c:	e92d4010 	push	{r4, lr}
    8c30:	e1a04000 	mov	r4, r0
    8c34:	ebffff6a 	bl	89e4 <dev_barrier>
    8c38:	ea000000 	b	8c40 <uart_put8+0x14>
    8c3c:	eb0000d0 	bl	8f84 <rpi_wait>
    8c40:	ebffffe0 	bl	8bc8 <uart_can_putc>
    8c44:	e3500000 	cmp	r0, #0, 0
    8c48:	0afffffb 	beq	8c3c <uart_put8+0x10>
    8c4c:	e1a01004 	mov	r1, r4
    8c50:	e59f000c 	ldr	r0, [pc, #12]	; 8c64 <uart_put8+0x38>
    8c54:	ebfffcf2 	bl	8024 <PUT32>
    8c58:	ebffff61 	bl	89e4 <dev_barrier>
    8c5c:	e3a00001 	mov	r0, #1, 0
    8c60:	e8bd8010 	pop	{r4, pc}
    8c64:	20215040 	.word	0x20215040

00008c68 <uart_has_data>:
    8c68:	e92d4010 	push	{r4, lr}
    8c6c:	ebffff5c 	bl	89e4 <dev_barrier>
    8c70:	ebffffce 	bl	8bb0 <uart_can_getc>
    8c74:	e8bd8010 	pop	{r4, pc}

00008c78 <uart_tx_is_empty>:
    8c78:	e92d4010 	push	{r4, lr}
    8c7c:	ebffff58 	bl	89e4 <dev_barrier>
    8c80:	e59f000c 	ldr	r0, [pc, #12]	; 8c94 <uart_tx_is_empty+0x1c>
    8c84:	ebfffce8 	bl	802c <GET32>
    8c88:	e1a004a0 	lsr	r0, r0, #9
    8c8c:	e2000001 	and	r0, r0, #1, 0
    8c90:	e8bd8010 	pop	{r4, pc}
    8c94:	20215064 	.word	0x20215064

00008c98 <uart_flush_tx>:
    8c98:	e92d4010 	push	{r4, lr}
    8c9c:	ea000000 	b	8ca4 <uart_flush_tx+0xc>
    8ca0:	eb0000b7 	bl	8f84 <rpi_wait>
    8ca4:	ebfffff3 	bl	8c78 <uart_tx_is_empty>
    8ca8:	e3500000 	cmp	r0, #0, 0
    8cac:	0afffffb 	beq	8ca0 <uart_flush_tx+0x8>
    8cb0:	e8bd8010 	pop	{r4, pc}

00008cb4 <uart_disable>:
    8cb4:	e92d4010 	push	{r4, lr}
    8cb8:	ebfffff6 	bl	8c98 <uart_flush_tx>
    8cbc:	ebffff48 	bl	89e4 <dev_barrier>
    8cc0:	e3e01001 	mvn	r1, #1, 0
    8cc4:	e59f0008 	ldr	r0, [pc, #8]	; 8cd4 <uart_disable+0x20>
    8cc8:	ebffff7b 	bl	8abc <and_in32>
    8ccc:	ebffff44 	bl	89e4 <dev_barrier>
    8cd0:	e8bd8010 	pop	{r4, pc}
    8cd4:	20215004 	.word	0x20215004

00008cd8 <using_staff_uart>:
    8cd8:	e12fff1e 	bx	lr

00008cdc <gpio_set_txpin>:
    8cdc:	e92d4070 	push	{r4, r5, r6, lr}
    8ce0:	e1a04000 	mov	r4, r0
    8ce4:	e3500035 	cmp	r0, #53, 0	; 0x35
    8ce8:	8a000010 	bhi	8d30 <gpio_set_txpin+0x54>
    8cec:	e59f104c 	ldr	r1, [pc, #76]	; 8d40 <gpio_set_txpin+0x64>
    8cf0:	e0813491 	umull	r3, r1, r1, r4
    8cf4:	e1a011a1 	lsr	r1, r1, #3
    8cf8:	e0811101 	add	r1, r1, r1, lsl #2
    8cfc:	e0441081 	sub	r1, r4, r1, lsl #1
    8d00:	e0814081 	add	r4, r1, r1, lsl #1
    8d04:	e3a00007 	mov	r0, #7, 0
    8d08:	e1a05410 	lsl	r5, r0, r4
    8d0c:	e59f6030 	ldr	r6, [pc, #48]	; 8d44 <gpio_set_txpin+0x68>
    8d10:	e1a00006 	mov	r0, r6
    8d14:	ebfffcc4 	bl	802c <GET32>
    8d18:	e1c00005 	bic	r0, r0, r5
    8d1c:	e3a01004 	mov	r1, #4, 0
    8d20:	e1801411 	orr	r1, r0, r1, lsl r4
    8d24:	e1a00006 	mov	r0, r6
    8d28:	ebfffcbd 	bl	8024 <PUT32>
    8d2c:	e8bd8070 	pop	{r4, r5, r6, pc}
    8d30:	e1a01000 	mov	r1, r0
    8d34:	e59f000c 	ldr	r0, [pc, #12]	; 8d48 <gpio_set_txpin+0x6c>
    8d38:	eb000086 	bl	8f58 <gpio_panic>
    8d3c:	eaffffea 	b	8cec <gpio_set_txpin+0x10>
    8d40:	cccccccd 	.word	0xcccccccd
    8d44:	20200004 	.word	0x20200004
    8d48:	0000952c 	.word	0x0000952c

00008d4c <gpio_set_on>:
    8d4c:	e92d4010 	push	{r4, lr}
    8d50:	e1a04000 	mov	r4, r0
    8d54:	e3500035 	cmp	r0, #53, 0	; 0x35
    8d58:	8a000007 	bhi	8d7c <gpio_set_on+0x30>
    8d5c:	e204301f 	and	r3, r4, #31, 0
    8d60:	e3a01001 	mov	r1, #1, 0
    8d64:	e1a01311 	lsl	r1, r1, r3
    8d68:	e354001f 	cmp	r4, #31, 0
    8d6c:	8a000006 	bhi	8d8c <gpio_set_on+0x40>
    8d70:	e59f0020 	ldr	r0, [pc, #32]	; 8d98 <gpio_set_on+0x4c>
    8d74:	ebfffcaa 	bl	8024 <PUT32>
    8d78:	e8bd8010 	pop	{r4, pc}
    8d7c:	e1a01000 	mov	r1, r0
    8d80:	e59f0014 	ldr	r0, [pc, #20]	; 8d9c <gpio_set_on+0x50>
    8d84:	eb000073 	bl	8f58 <gpio_panic>
    8d88:	eafffff3 	b	8d5c <gpio_set_on+0x10>
    8d8c:	e59f000c 	ldr	r0, [pc, #12]	; 8da0 <gpio_set_on+0x54>
    8d90:	ebfffca3 	bl	8024 <PUT32>
    8d94:	e8bd8010 	pop	{r4, pc}
    8d98:	2020001c 	.word	0x2020001c
    8d9c:	0000952c 	.word	0x0000952c
    8da0:	20200020 	.word	0x20200020

00008da4 <gpio_set_off>:
    8da4:	e92d4010 	push	{r4, lr}
    8da8:	e1a04000 	mov	r4, r0
    8dac:	e3500035 	cmp	r0, #53, 0	; 0x35
    8db0:	8a000007 	bhi	8dd4 <gpio_set_off+0x30>
    8db4:	e204301f 	and	r3, r4, #31, 0
    8db8:	e3a01001 	mov	r1, #1, 0
    8dbc:	e1a01311 	lsl	r1, r1, r3
    8dc0:	e354001f 	cmp	r4, #31, 0
    8dc4:	8a000006 	bhi	8de4 <gpio_set_off+0x40>
    8dc8:	e59f0020 	ldr	r0, [pc, #32]	; 8df0 <gpio_set_off+0x4c>
    8dcc:	ebfffc94 	bl	8024 <PUT32>
    8dd0:	e8bd8010 	pop	{r4, pc}
    8dd4:	e1a01000 	mov	r1, r0
    8dd8:	e59f0014 	ldr	r0, [pc, #20]	; 8df4 <gpio_set_off+0x50>
    8ddc:	eb00005d 	bl	8f58 <gpio_panic>
    8de0:	eafffff3 	b	8db4 <gpio_set_off+0x10>
    8de4:	e59f000c 	ldr	r0, [pc, #12]	; 8df8 <gpio_set_off+0x54>
    8de8:	ebfffc8d 	bl	8024 <PUT32>
    8dec:	e8bd8010 	pop	{r4, pc}
    8df0:	20200028 	.word	0x20200028
    8df4:	0000952c 	.word	0x0000952c
    8df8:	2020002c 	.word	0x2020002c

00008dfc <gpio_write>:
    8dfc:	e92d4010 	push	{r4, lr}
    8e00:	e3510000 	cmp	r1, #0, 0
    8e04:	0a000001 	beq	8e10 <gpio_write+0x14>
    8e08:	ebffffcf 	bl	8d4c <gpio_set_on>
    8e0c:	e8bd8010 	pop	{r4, pc}
    8e10:	ebffffe3 	bl	8da4 <gpio_set_off>
    8e14:	e8bd8010 	pop	{r4, pc}

00008e18 <gpio_read>:
    8e18:	e92d4010 	push	{r4, lr}
    8e1c:	e1a04000 	mov	r4, r0
    8e20:	e3500035 	cmp	r0, #53, 0	; 0x35
    8e24:	8a000007 	bhi	8e48 <gpio_read+0x30>
    8e28:	e354001f 	cmp	r4, #31, 0
    8e2c:	8a000009 	bhi	8e58 <gpio_read+0x40>
    8e30:	e59f002c 	ldr	r0, [pc, #44]	; 8e64 <gpio_read+0x4c>
    8e34:	ebfffc7c 	bl	802c <GET32>
    8e38:	e204401f 	and	r4, r4, #31, 0
    8e3c:	e1a00430 	lsr	r0, r0, r4
    8e40:	e2000001 	and	r0, r0, #1, 0
    8e44:	e8bd8010 	pop	{r4, pc}
    8e48:	e1a01000 	mov	r1, r0
    8e4c:	e59f0014 	ldr	r0, [pc, #20]	; 8e68 <gpio_read+0x50>
    8e50:	eb000040 	bl	8f58 <gpio_panic>
    8e54:	eafffff3 	b	8e28 <gpio_read+0x10>
    8e58:	e59f000c 	ldr	r0, [pc, #12]	; 8e6c <gpio_read+0x54>
    8e5c:	ebfffc72 	bl	802c <GET32>
    8e60:	eafffff4 	b	8e38 <gpio_read+0x20>
    8e64:	20200034 	.word	0x20200034
    8e68:	0000952c 	.word	0x0000952c
    8e6c:	20200038 	.word	0x20200038

00008e70 <gpio_set_function>:
    8e70:	e92d41f0 	push	{r4, r5, r6, r7, r8, lr}
    8e74:	e1a04000 	mov	r4, r0
    8e78:	e1a06001 	mov	r6, r1
    8e7c:	e3500035 	cmp	r0, #53, 0	; 0x35
    8e80:	8a000014 	bhi	8ed8 <gpio_set_function+0x68>
    8e84:	e3d63007 	bics	r3, r6, #7, 0
    8e88:	1a000016 	bne	8ee8 <gpio_set_function+0x78>
    8e8c:	e59f3064 	ldr	r3, [pc, #100]	; 8ef8 <gpio_set_function+0x88>
    8e90:	e0832493 	umull	r2, r3, r3, r4
    8e94:	e1a031a3 	lsr	r3, r3, #3
    8e98:	e1a02003 	mov	r2, r3
    8e9c:	e0833103 	add	r3, r3, r3, lsl #2
    8ea0:	e0443083 	sub	r3, r4, r3, lsl #1
    8ea4:	e0834083 	add	r4, r3, r3, lsl #1
    8ea8:	e3a01007 	mov	r1, #7, 0
    8eac:	e1a07411 	lsl	r7, r1, r4
    8eb0:	e2820302 	add	r0, r2, #134217728	; 0x8000000
    8eb4:	e2800702 	add	r0, r0, #524288	; 0x80000
    8eb8:	e1a05100 	lsl	r5, r0, #2
    8ebc:	e1a00005 	mov	r0, r5
    8ec0:	ebfffc59 	bl	802c <GET32>
    8ec4:	e1c01007 	bic	r1, r0, r7
    8ec8:	e1811416 	orr	r1, r1, r6, lsl r4
    8ecc:	e1a00005 	mov	r0, r5
    8ed0:	ebfffc53 	bl	8024 <PUT32>
    8ed4:	e8bd81f0 	pop	{r4, r5, r6, r7, r8, pc}
    8ed8:	e1a01000 	mov	r1, r0
    8edc:	e59f0018 	ldr	r0, [pc, #24]	; 8efc <gpio_set_function+0x8c>
    8ee0:	eb00001c 	bl	8f58 <gpio_panic>
    8ee4:	eaffffe6 	b	8e84 <gpio_set_function+0x14>
    8ee8:	e1a01006 	mov	r1, r6
    8eec:	e59f000c 	ldr	r0, [pc, #12]	; 8f00 <gpio_set_function+0x90>
    8ef0:	eb000018 	bl	8f58 <gpio_panic>
    8ef4:	eaffffe4 	b	8e8c <gpio_set_function+0x1c>
    8ef8:	cccccccd 	.word	0xcccccccd
    8efc:	0000952c 	.word	0x0000952c
    8f00:	0000953c 	.word	0x0000953c

00008f04 <gpio_set_output>:
    8f04:	e92d4010 	push	{r4, lr}
    8f08:	e3a01001 	mov	r1, #1, 0
    8f0c:	ebffffd7 	bl	8e70 <gpio_set_function>
    8f10:	e8bd8010 	pop	{r4, pc}

00008f14 <gpio_set_input>:
    8f14:	e92d4010 	push	{r4, lr}
    8f18:	e3a01000 	mov	r1, #0, 0
    8f1c:	ebffffd3 	bl	8e70 <gpio_set_function>
    8f20:	e8bd8010 	pop	{r4, pc}

00008f24 <putk>:
    8f24:	e92d4010 	push	{r4, lr}
    8f28:	e1a04000 	mov	r4, r0
    8f2c:	e5d40000 	ldrb	r0, [r4]
    8f30:	e3500000 	cmp	r0, #0, 0
    8f34:	0a000004 	beq	8f4c <putk+0x28>
    8f38:	e59f3014 	ldr	r3, [pc, #20]	; 8f54 <putk+0x30>
    8f3c:	e5933000 	ldr	r3, [r3]
    8f40:	e12fff33 	blx	r3
    8f44:	e2844001 	add	r4, r4, #1, 0
    8f48:	eafffff7 	b	8f2c <putk+0x8>
    8f4c:	e3a00001 	mov	r0, #1, 0
    8f50:	e8bd8010 	pop	{r4, pc}
    8f54:	0000959c 	.word	0x0000959c

00008f58 <gpio_panic>:
    8f58:	e92d000f 	push	{r0, r1, r2, r3}
    8f5c:	e92d4010 	push	{r4, lr}
    8f60:	e3a03005 	mov	r3, #5, 0
    8f64:	e59f200c 	ldr	r2, [pc, #12]	; 8f78 <gpio_panic+0x20>
    8f68:	e59f100c 	ldr	r1, [pc, #12]	; 8f7c <gpio_panic+0x24>
    8f6c:	e59f000c 	ldr	r0, [pc, #12]	; 8f80 <gpio_panic+0x28>
    8f70:	ebfffd29 	bl	841c <printk>
    8f74:	ebfffe31 	bl	8840 <clean_reboot>
    8f78:	00009590 	.word	0x00009590
    8f7c:	00009550 	.word	0x00009550
    8f80:	0000956c 	.word	0x0000956c

00008f84 <rpi_wait>:
    8f84:	e12fff1e 	bx	lr
